

Microchip MPLAB XC8 Assembler V2.36 build 20220127204148 
                                                                                               Tue Jul 19 21:54:56 2022

Microchip MPLAB XC8 C Compiler v2.36 (Free license) build 20220127204148 Og1 
     1                           	processor	18F26K22
     2                           	fnconf	rparam,??,?,0
     3                           	pagewidth 120
     4                           	opt	flic
     5                           	psect	idataCOMRAM,global,class=CODE,delta=1,noexec
     6                           	psect	smallconst,global,reloc=2,class=SMALLCONST,delta=1,noexec
     7                           	psect	nvCOMRAM,global,class=COMRAM,space=1,delta=1,lowdata,noexec
     8                           	psect	cinit,global,reloc=2,class=CODE,delta=1
     9                           	psect	bssCOMRAM,global,class=COMRAM,space=1,delta=1,lowdata,noexec
    10                           	psect	dataCOMRAM,global,class=COMRAM,space=1,delta=1,lowdata,noexec
    11                           	psect	bssBANK0,global,class=BANK0,space=1,delta=1,lowdata,noexec
    12                           	psect	bssBIGRAM,global,class=BIGRAM,space=1,delta=1,noexec
    13                           	psect	cstackBANK0,global,class=BANK0,space=1,delta=1,lowdata,noexec
    14                           	psect	cstackCOMRAM,global,class=COMRAM,space=1,delta=1,lowdata,noexec
    15                           	psect	text0,global,reloc=2,class=CODE,delta=1
    16                           	psect	text1,global,reloc=2,class=CODE,delta=1
    17                           	psect	text2,global,reloc=2,class=CODE,delta=1
    18                           	psect	text3,global,reloc=2,class=CODE,delta=1
    19                           	psect	text4,global,reloc=2,class=CODE,delta=1
    20                           	psect	text5,global,reloc=2,class=CODE,delta=1
    21                           	psect	text6,global,reloc=2,class=CODE,delta=1
    22                           	psect	text7,global,reloc=2,class=CODE,delta=1
    23                           	psect	text8,global,reloc=2,class=CODE,delta=1
    24                           	psect	text9,global,reloc=2,class=CODE,delta=1
    25                           	psect	text10,global,reloc=2,class=CODE,delta=1
    26                           	psect	text11,global,reloc=2,class=CODE,delta=1
    27                           	psect	text12,global,reloc=2,class=CODE,delta=1
    28                           	psect	text13,global,reloc=2,class=CODE,delta=1
    29                           	psect	text14,global,reloc=2,class=CODE,delta=1
    30                           	psect	text15,global,reloc=2,class=CODE,delta=1
    31                           	psect	text16,global,reloc=2,class=CODE,delta=1
    32                           	psect	text17,global,reloc=2,class=CODE,delta=1
    33                           	psect	text18,global,reloc=2,class=CODE,delta=1
    34                           	psect	text19,global,reloc=2,class=CODE,delta=1
    35                           	psect	text20,global,reloc=2,class=CODE,delta=1
    36                           	psect	text21,global,reloc=2,class=CODE,delta=1
    37                           	psect	text22,global,reloc=2,class=CODE,delta=1
    38                           	psect	text23,global,reloc=2,class=CODE,delta=1
    39                           	psect	text24,global,reloc=2,class=CODE,delta=1
    40                           	psect	text25,global,reloc=2,class=CODE,delta=1
    41                           	psect	text26,global,reloc=2,class=CODE,delta=1
    42                           	psect	text27,global,reloc=2,class=CODE,delta=1
    43                           	psect	text28,global,reloc=2,class=CODE,delta=1
    44                           	psect	text29,global,reloc=2,class=CODE,delta=1,group=2
    45                           	psect	text30,global,reloc=2,class=CODE,delta=1
    46                           	psect	intcode,global,reloc=2,class=CODE,delta=1
    47                           	psect	text32,global,reloc=2,class=CODE,delta=1
    48                           	psect	text33,global,reloc=2,class=CODE,delta=1
    49                           	psect	text34,global,reloc=2,class=CODE,delta=1
    50                           	psect	text35,global,reloc=2,class=CODE,delta=1,group=1
    51                           	psect	text36,global,reloc=2,class=CODE,delta=1
    52                           	psect	text37,global,reloc=2,class=CODE,delta=1
    53                           	psect	text38,global,reloc=2,class=CODE,delta=1
    54                           	psect	text39,global,reloc=2,class=CODE,delta=1
    55                           	psect	text40,global,reloc=2,class=CODE,delta=1
    56                           	psect	intsave_regs,global,class=BIGRAM,space=1,delta=1,noexec
    57                           	psect	text41,global,reloc=2,class=CODE,delta=1
    58                           	psect	rparam,global,class=COMRAM,space=1,delta=1,noexec
    59                           	psect	temp,global,ovrld,common,class=COMRAM,space=1,delta=1
    60                           	psect	idloc,global,abs,ovrld,class=IDLOC,space=5,delta=1,noexec
    61                           	psect	config,global,abs,ovrld,class=CONFIG,space=4,delta=1,noexec
    62  0000                     
    63                           ; Version 2.35
    64                           ; Generated 05/05/2021 GMT
    65                           ; 
    66                           ; Copyright © 2021, Microchip Technology Inc. and its subsidiaries ("Microchip")
    67                           ; All rights reserved.
    68                           ; 
    69                           ; This software is developed by Microchip Technology Inc. and its subsidiaries ("Microch
      +                          ip").
    70                           ; 
    71                           ; Redistribution and use in source and binary forms, with or without modification, are
    72                           ; permitted provided that the following conditions are met:
    73                           ; 
    74                           ;     1. Redistributions of source code must retain the above copyright notice, this lis
      +                          t of
    75                           ;        conditions and the following disclaimer.
    76                           ; 
    77                           ;     2. Redistributions in binary form must reproduce the above copyright notice, this 
      +                          list
    78                           ;        of conditions and the following disclaimer in the documentation and/or other
    79                           ;        materials provided with the distribution. Publication is not required when
    80                           ;        this file is used in an embedded application.
    81                           ; 
    82                           ;     3. Microchip's name may not be used to endorse or promote products derived from th
      +                          is
    83                           ;        software without specific prior written permission.
    84                           ; 
    85                           ; THIS SOFTWARE IS PROVIDED BY MICROCHIP "AS IS" AND ANY EXPRESS OR IMPLIED WARRANTIES,
    86                           ; INCLUDING, BUT NOT LIMITED TO, THE IMPLIED WARRANTIES OF MERCHANTABILITY AND FITNESS F
      +                          OR
    87                           ; PURPOSE ARE DISCLAIMED.  IN NO EVENT SHALL MICROCHIP BE LIABLE FOR ANY DIRECT, INDIREC
      +                          T,
    88                           ; INCIDENTAL, SPECIAL, EXEMPLARY, OR CONSEQUENTIAL DAMAGES (INCLUDING BUT NOT LIMITED TO
    89                           ; PROCUREMENT OF SUBSTITUTE GOODS OR SERVICES; LOSS OF USE, DATA OR PROFITS; OR BUSINESS
    90                           ; INTERRUPTION) HOWSOEVER CAUSED AND ON ANY THEORY OF LIABILITY, WHETHER IN CONTRACT, ST
      +                          RICT
    91                           ; LIABILITY, OR TORT (INCLUDING NEGLIGENCE OR OTHERWISE) ARISING IN ANY WAY OUT OF THE U
      +                          SE OF
    92                           ; THIS SOFTWARE, EVEN IF ADVISED OF THE POSSIBILITY OF SUCH DAMAGE.
    93                           ; 
    94                           ; 
    95                           ; Code-generator required, PIC18F26K22 Definitions
    96                           ; 
    97                           ; SFR Addresses
    98  0000                     
    99                           	psect	idataCOMRAM
   100  001EDE                     __pidataCOMRAM:
   101                           	callstack 0
   102                           
   103                           ;initializer for _PingInterval
   104  001EDE  01                 	db	1
   105                           
   106                           ;initializer for _DEFAULT_PIPE_ADDR
   107  001EDF  68                 	db	104
   108  001EE0  65                 	db	101
   109  001EE1  6C                 	db	108
   110  001EE2  6C                 	db	108
   111  001EE3  6F                 	db	111
   112  001EE4  00                 	db	0
   113                           
   114                           ;initializer for _BoardAddress
   115  001EE5  FF                 	db	255
   116  001EE6  FF                 	db	255
   117  001EE7  FF                 	db	255
   118                           
   119                           	psect	smallconst
   120  001000                     __psmallconst:
   121                           	callstack 0
   122  001000  00                 	db	0
   123  001001                     _spi1_configuration:
   124                           	callstack 0
   125  001001  00                 	db	0
   126  001002  40                 	db	64
   127  001003  01                 	db	1
   128  001004  00                 	db	0
   129  001005                     __end_of_spi1_configuration:
   130                           	callstack 0
   131  0000                     _T1CON	set	4045
   132  0000                     _TMR1L	set	4046
   133  0000                     _TMR1H	set	4047
   134  0000                     _ANSELA	set	3896
   135  0000                     _ANSELB	set	3897
   136  0000                     _ANSELC	set	3898
   137  0000                     _LATA	set	3977
   138  001005  00                 	db	0	; dummy byte at the end
   139  0000                     
   140                           	psect	nvCOMRAM
   141  000037                     __pnvCOMRAM:
   142                           	callstack 0
   143  000037                     _TMR1_InterruptHandler:
   144                           	callstack 0
   145  000037                     	ds	2
   146  000039                     _timer1ReloadVal:
   147                           	callstack 0
   148  000039                     	ds	2
   149  0000                     _TMR1	set	4046
   150  0000                     _LATCbits	set	3979
   151  0000                     _LATAbits	set	3977
   152  0000                     _T1GCONbits	set	4044
   153  0000                     _T1CONbits	set	4045
   154  0000                     _SSP1CON1bits	set	4038
   155  0000                     _TRISCbits	set	3988
   156  0000                     _TRISA	set	3986
   157  0000                     _LATC	set	3979
   158  0000                     _LATB	set	3978
   159  0000                     _OSCTUNE	set	3995
   160  0000                     _PIR1bits	set	3998
   161  0000                     _SSP1CON2	set	4037
   162  0000                     _SSP1CON1	set	4038
   163  0000                     _SSP1STAT	set	4039
   164  0000                     _INTCON2bits	set	4081
   165  0000                     _TRISC	set	3988
   166  0000                     _TRISB	set	3987
   167  0000                     _WPUB	set	3937
   168  0000                     _INTCONbits	set	4082
   169  0000                     _T1GCON	set	4044
   170  0000                     _OSCCON2	set	4050
   171  0000                     _OSCCON	set	4051
   172  0000                     _SSP1BUF	set	4041
   173  0000                     _SSP1ADD	set	4040
   174  0000                     _PIE1bits	set	3997
   175  0000                     _RCONbits	set	4048
   176                           
   177                           ; #config settings
   178                           
   179                           	psect	cinit
   180  001A18                     __pcinit:
   181                           	callstack 0
   182  001A18                     start_initialization:
   183                           	callstack 0
   184  001A18                     __initialization:
   185                           	callstack 0
   186                           
   187                           ; Initialize objects allocated to COMRAM (10 bytes)
   188                           ; load TBLPTR registers with __pidataCOMRAM
   189  001A18  0EDE               	movlw	low __pidataCOMRAM
   190  001A1A  6EF6               	movwf	tblptrl,c
   191  001A1C  0E1E               	movlw	high __pidataCOMRAM
   192  001A1E  6EF7               	movwf	tblptrh,c
   193  001A20  0E00               	movlw	low (__pidataCOMRAM shr (0+16))
   194  001A22  6EF8               	movwf	tblptru,c
   195  001A24  EE00  F02D         	lfsr	0,__pdataCOMRAM
   196  001A28  EE10 F00A          	lfsr	1,10
   197  001A2C                     copy_data0:
   198  001A2C  0009               	tblrd		*+
   199  001A2E  CFF5 FFEE          	movff	tablat,postinc0
   200  001A32  50E5               	movf	postdec1,w,c
   201  001A34  50E1               	movf	fsr1l,w,c
   202  001A36  E1FA               	bnz	copy_data0
   203                           
   204                           ; Clear objects allocated to BIGRAM (304 bytes)
   205  001A38  EE00  F0F6         	lfsr	0,__pbssBIGRAM
   206  001A3C  EE11 F030          	lfsr	1,304
   207  001A40                     clear_0:
   208  001A40  6AEE               	clrf	postinc0,c
   209  001A42  50E5               	movf	postdec1,w,c
   210  001A44  50E1               	movf	fsr1l,w,c
   211  001A46  E1FC               	bnz	clear_0
   212  001A48  50E2               	movf	fsr1h,w,c
   213  001A4A  E1FA               	bnz	clear_0
   214                           
   215                           ; Clear objects allocated to BANK0 (83 bytes)
   216  001A4C  EE00  F060         	lfsr	0,__pbssBANK0
   217  001A50  0E53               	movlw	83
   218  001A52                     clear_1:
   219  001A52  6AEE               	clrf	postinc0,c
   220  001A54  06E8               	decf	wreg,f,c
   221  001A56  E1FD               	bnz	clear_1
   222                           
   223                           ; Clear objects allocated to COMRAM (4 bytes)
   224  001A58  6A3E               	clrf	(__pbssCOMRAM+3)& (0+255),c
   225  001A5A  6A3D               	clrf	(__pbssCOMRAM+2)& (0+255),c
   226  001A5C  6A3C               	clrf	(__pbssCOMRAM+1)& (0+255),c
   227  001A5E  6A3B               	clrf	__pbssCOMRAM& (0+255),c
   228  001A60                     end_of_initialization:
   229                           	callstack 0
   230  001A60                     __end_of__initialization:
   231                           	callstack 0
   232  001A60  903F               	bcf	int$flags,0,c	;clear compiler interrupt flag (level 1)
   233  001A62  923F               	bcf	int$flags,1,c	;clear compiler interrupt flag (level 2)
   234  001A64  0100               	movlb	0
   235  001A66  EFE0  F00E         	goto	_main	;jump to C main() function
   236                           
   237                           	psect	bssCOMRAM
   238  00003B                     __pbssCOMRAM:
   239                           	callstack 0
   240  00003B                     _Ticks:
   241                           	callstack 0
   242  00003B                     	ds	4
   243                           
   244                           	psect	dataCOMRAM
   245  00002D                     __pdataCOMRAM:
   246                           	callstack 0
   247  00002D                     _PingInterval:
   248                           	callstack 0
   249  00002D                     	ds	1
   250  00002E                     _DEFAULT_PIPE_ADDR:
   251                           	callstack 0
   252  00002E                     	ds	6
   253  000034                     _BoardAddress:
   254                           	callstack 0
   255  000034                     	ds	3
   256                           
   257                           	psect	bssBANK0
   258  000060                     __pbssBANK0:
   259                           	callstack 0
   260  000060                     	ds	2
   261  000062                     _bufferRX:
   262                           	callstack 0
   263  000062                     	ds	32
   264  000082                     _bufferTX:
   265                           	callstack 0
   266  000082                     	ds	32
   267  0000A2                     _config:
   268                           	callstack 0
   269  0000A2                     	ds	17
   270                           
   271                           	psect	bssBIGRAM
   272  0000F6                     __pbssBIGRAM:
   273                           	callstack 0
   274  0000F6                     _packetsTX:
   275                           	callstack 0
   276  0000F6                     	ds	304
   277                           
   278                           	psect	cstackBANK0
   279  0000B3                     __pcstackBANK0:
   280                           	callstack 0
   281  0000B3                     QueueTXPacket@buffer:
   282                           	callstack 0
   283                           
   284                           ; 2 bytes @ 0x0
   285  0000B3                     	ds	2
   286  0000B5                     QueueTXPacket@sz:
   287                           	callstack 0
   288                           
   289                           ; 1 bytes @ 0x2
   290  0000B5                     	ds	1
   291  0000B6                     
   292                           ; 1 bytes @ 0x3
   293  0000B6                     	ds	4
   294  0000BA                     QueueTXPacket@oldestTime:
   295                           	callstack 0
   296                           
   297                           ; 4 bytes @ 0x7
   298  0000BA                     	ds	4
   299  0000BE                     QueueTXPacket@oldestPkt:
   300                           	callstack 0
   301                           
   302                           ; 1 bytes @ 0xB
   303  0000BE                     	ds	1
   304  0000BF                     QueueTXPacket@i:
   305                           	callstack 0
   306                           
   307                           ; 1 bytes @ 0xC
   308  0000BF                     	ds	1
   309  0000C0                     SendError@errorCode:
   310                           	callstack 0
   311  0000C0                     SendData@data:
   312                           	callstack 0
   313                           
   314                           ; 2 bytes @ 0xD
   315  0000C0                     	ds	1
   316  0000C1                     SendError@i:
   317                           	callstack 0
   318                           
   319                           ; 1 bytes @ 0xE
   320  0000C1                     	ds	1
   321  0000C2                     SendData@dataSz:
   322                           	callstack 0
   323                           
   324                           ; 1 bytes @ 0xF
   325  0000C2                     	ds	1
   326  0000C3                     SendData@actionID:
   327                           	callstack 0
   328                           
   329                           ; 1 bytes @ 0x10
   330  0000C3                     	ds	1
   331  0000C4                     SendData@i:
   332                           	callstack 0
   333                           
   334                           ; 1 bytes @ 0x11
   335  0000C4                     	ds	1
   336  0000C5                     ProcessActionRequest@data:
   337                           	callstack 0
   338                           
   339                           ; 2 bytes @ 0x12
   340  0000C5                     	ds	2
   341  0000C7                     ??_ProcessActionRequest:
   342                           
   343                           ; 1 bytes @ 0x14
   344  0000C7                     	ds	2
   345  0000C9                     ProcessActionRequest@actionID:
   346                           	callstack 0
   347                           
   348                           ; 1 bytes @ 0x16
   349  0000C9                     	ds	1
   350  0000CA                     ProcessActionRequest@tmpHumidity:
   351                           	callstack 0
   352                           
   353                           ; 2 bytes @ 0x17
   354  0000CA                     	ds	2
   355  0000CC                     ProcessAckPayload@buffer:
   356                           	callstack 0
   357                           
   358                           ; 2 bytes @ 0x19
   359  0000CC                     	ds	2
   360  0000CE                     ProcessAckPayload@sz:
   361                           	callstack 0
   362                           
   363                           ; 1 bytes @ 0x1B
   364  0000CE                     	ds	1
   365  0000CF                     ??_ProcessAckPayload:
   366                           
   367                           ; 1 bytes @ 0x1C
   368  0000CF                     	ds	2
   369  0000D1                     ProcessAckPayload@data:
   370                           	callstack 0
   371                           
   372                           ; 32 bytes @ 0x1E
   373  0000D1                     	ds	32
   374  0000F1                     ProcessAckPayload@actionID:
   375                           	callstack 0
   376                           
   377                           ; 1 bytes @ 0x3E
   378  0000F1                     	ds	1
   379  0000F2                     ProcessAckPayload@pktType:
   380                           	callstack 0
   381                           
   382                           ; 1 bytes @ 0x3F
   383  0000F2                     	ds	1
   384  0000F3                     HandlePacketLoop@sz:
   385                           	callstack 0
   386                           
   387                           ; 1 bytes @ 0x40
   388  0000F3                     	ds	1
   389  0000F4                     HandlePacketLoop@status:
   390                           	callstack 0
   391                           
   392                           ; 1 bytes @ 0x41
   393  0000F4                     	ds	1
   394  0000F5                     HandlePacketLoop@i:
   395                           	callstack 0
   396                           
   397                           ; 1 bytes @ 0x42
   398  0000F5                     	ds	1
   399                           
   400                           	psect	cstackCOMRAM
   401  000001                     __pcstackCOMRAM:
   402                           	callstack 0
   403  000001                     ?___llmod:
   404                           	callstack 0
   405  000001                     TMR1_WriteTimer@timerVal:
   406                           	callstack 0
   407  000001                     i2SuperMemCpy@dest:
   408                           	callstack 0
   409  000001                     i2memcpy@d1:
   410                           	callstack 0
   411  000001                     ___llmod@dividend:
   412                           	callstack 0
   413                           
   414                           ; 4 bytes @ 0x0
   415  000001                     	ds	2
   416  000003                     i2SuperMemCpy@destStart:
   417                           	callstack 0
   418  000003                     i2memcpy@s1:
   419                           	callstack 0
   420                           
   421                           ; 2 bytes @ 0x2
   422  000003                     	ds	1
   423  000004                     i2SuperMemCpy@src:
   424                           	callstack 0
   425                           
   426                           ; 2 bytes @ 0x3
   427  000004                     	ds	1
   428  000005                     i2memcpy@n:
   429                           	callstack 0
   430  000005                     ___llmod@divisor:
   431                           	callstack 0
   432                           
   433                           ; 4 bytes @ 0x4
   434  000005                     	ds	1
   435  000006                     i2SuperMemCpy@srcStart:
   436                           	callstack 0
   437                           
   438                           ; 1 bytes @ 0x5
   439  000006                     	ds	1
   440  000007                     i2SuperMemCpy@sz:
   441                           	callstack 0
   442  000007                     i2memcpy@d:
   443                           	callstack 0
   444                           
   445                           ; 2 bytes @ 0x6
   446  000007                     	ds	1
   447  000008                     ??i2_SuperMemCpy:
   448                           
   449                           ; 1 bytes @ 0x7
   450  000008                     	ds	1
   451  000009                     ___llmod@counter:
   452                           	callstack 0
   453  000009                     i2memcpy@s:
   454                           	callstack 0
   455                           
   456                           ; 2 bytes @ 0x8
   457  000009                     	ds	2
   458  00000B                     i2memcpy@tmp:
   459                           	callstack 0
   460                           
   461                           ; 1 bytes @ 0xA
   462  00000B                     	ds	1
   463  00000C                     i2SuperMemCpy@i:
   464                           	callstack 0
   465  00000C                     i2QueueTXPacket@buffer:
   466                           	callstack 0
   467                           
   468                           ; 2 bytes @ 0xB
   469  00000C                     	ds	2
   470  00000E                     i2QueueTXPacket@sz:
   471                           	callstack 0
   472                           
   473                           ; 1 bytes @ 0xD
   474  00000E                     	ds	1
   475  00000F                     
   476                           ; 1 bytes @ 0xE
   477  00000F                     	ds	4
   478  000013                     i2QueueTXPacket@oldestTime:
   479                           	callstack 0
   480                           
   481                           ; 4 bytes @ 0x12
   482  000013                     	ds	4
   483  000017                     i2QueueTXPacket@oldestPkt:
   484                           	callstack 0
   485                           
   486                           ; 1 bytes @ 0x16
   487  000017                     	ds	1
   488  000018                     i2QueueTXPacket@i:
   489                           	callstack 0
   490                           
   491                           ; 1 bytes @ 0x17
   492  000018                     	ds	1
   493  000019                     ??_INTERRUPT_InterruptManager:
   494                           
   495                           ; 1 bytes @ 0x18
   496  000019                     	ds	8
   497  000021                     ??_SPI1_Open:
   498  000021                     SPI1_ExchangeByte@data:
   499                           	callstack 0
   500  000021                     TMR1_SetInterruptHandler@InterruptHandler:
   501                           	callstack 0
   502  000021                     GetMockTempHumidity@temp:
   503                           	callstack 0
   504  000021                     VerifyBoardAddress@bufferRX:
   505                           	callstack 0
   506  000021                     SuperMemCpy@dest:
   507                           	callstack 0
   508  000021                     memcpy@d1:
   509                           	callstack 0
   510                           
   511                           ; 2 bytes @ 0x20
   512  000021                     	ds	1
   513  000022                     SPI1_Open@spi1UniqueConfiguration:
   514                           	callstack 0
   515  000022                     nrf24_write_register@value:
   516                           	callstack 0
   517  000022                     nrf24_read_register@mnemonic_addr:
   518                           	callstack 0
   519  000022                     nrf24_read_dynamic_payload_length@byte0:
   520                           	callstack 0
   521  000022                     nrf24_write_buff@buffer:
   522                           	callstack 0
   523  000022                     nrf24_read_buff@buffer:
   524                           	callstack 0
   525                           
   526                           ; 2 bytes @ 0x21
   527  000022                     	ds	1
   528  000023                     ??_VerifyBoardAddress:
   529  000023                     nrf24_write_register@mnemonic_addr:
   530                           	callstack 0
   531  000023                     nrf24_read_register@byte0:
   532                           	callstack 0
   533  000023                     SuperMemCpy@destStart:
   534                           	callstack 0
   535  000023                     memcpy@s1:
   536                           	callstack 0
   537                           
   538                           ; 2 bytes @ 0x22
   539  000023                     	ds	1
   540  000024                     ??_nrf24_flush_tx_rx:
   541  000024                     nrf24_write_buff@bytes:
   542                           	callstack 0
   543  000024                     nrf24_read_buff@bytes:
   544                           	callstack 0
   545  000024                     SuperMemCpy@src:
   546                           	callstack 0
   547                           
   548                           ; 2 bytes @ 0x23
   549  000024                     	ds	1
   550  000025                     nrf24_write_buff@mnemonic_addr:
   551                           	callstack 0
   552  000025                     nrf24_read_buff@mnemonic_addr:
   553                           	callstack 0
   554  000025                     memcpy@n:
   555                           	callstack 0
   556                           
   557                           ; 2 bytes @ 0x24
   558  000025                     	ds	1
   559  000026                     nrf24_write_buff@i:
   560                           	callstack 0
   561  000026                     nrf24_read_buff@i:
   562                           	callstack 0
   563  000026                     SuperMemCpy@srcStart:
   564                           	callstack 0
   565                           
   566                           ; 1 bytes @ 0x25
   567  000026                     	ds	1
   568  000027                     SuperMemCpy@sz:
   569                           	callstack 0
   570  000027                     memcpy@tmp:
   571                           	callstack 0
   572  000027                     nrf24_send_rf_data@buffer:
   573                           	callstack 0
   574  000027                     nrf24_read_rf_data@buffer:
   575                           	callstack 0
   576  000027                     VerifyBoardAddress@i:
   577                           	callstack 0
   578                           
   579                           ; 2 bytes @ 0x26
   580  000027                     	ds	1
   581  000028                     ??_SuperMemCpy:
   582  000028                     memcpy@d:
   583                           	callstack 0
   584                           
   585                           ; 2 bytes @ 0x27
   586  000028                     	ds	1
   587  000029                     nrf24_send_rf_data@sz:
   588                           	callstack 0
   589  000029                     nrf24_read_rf_data@sz:
   590                           	callstack 0
   591                           
   592                           ; 1 bytes @ 0x28
   593  000029                     	ds	1
   594  00002A                     memcpy@s:
   595                           	callstack 0
   596                           
   597                           ; 2 bytes @ 0x29
   598  00002A                     	ds	2
   599  00002C                     InitRadio@i:
   600                           	callstack 0
   601  00002C                     ReloadConfig@ard:
   602                           	callstack 0
   603  00002C                     SuperMemCpy@i:
   604                           	callstack 0
   605                           
   606                           ; 1 bytes @ 0x2B
   607  00002C                     	ds	1
   608  00002D                     
   609                           ; 1 bytes @ 0x2C
   610 ;;
   611 ;;Main: autosize = 0, tempsize = 0, incstack = 0, save=0
   612 ;;
   613 ;; *************** function _main *****************
   614 ;; Defined at:
   615 ;;		line 12 in file "main.c"
   616 ;; Parameters:    Size  Location     Type
   617 ;;		None
   618 ;; Auto vars:     Size  Location     Type
   619 ;;		None
   620 ;; Return value:  Size  Location     Type
   621 ;;                  1    wreg      void 
   622 ;; Registers used:
   623 ;;		wreg, fsr1l, fsr1h, fsr2l, fsr2h, status,2, status,0, tblptrl, tblptrh, tblptru, prodl, prodh, cstack
   624 ;; Tracked objects:
   625 ;;		On entry : 0/0
   626 ;;		On exit  : 0/0
   627 ;;		Unchanged: 0/0
   628 ;; Data sizes:     COMRAM   BANK0   BANK1   BANK2   BANK3   BANK4   BANK5   BANK6   BANK7   BANK8   BANK9  BANK10  BANK1
      +1  BANK12  BANK13  BANK14  BANK15
   629 ;;      Params:         0       0       0       0       0       0       0       0       0       0       0       0       
      +0       0       0       0       0
   630 ;;      Locals:         0       0       0       0       0       0       0       0       0       0       0       0       
      +0       0       0       0       0
   631 ;;      Temps:          0       0       0       0       0       0       0       0       0       0       0       0       
      +0       0       0       0       0
   632 ;;      Totals:         0       0       0       0       0       0       0       0       0       0       0       0       
      +0       0       0       0       0
   633 ;;Total ram usage:        0 bytes
   634 ;; Hardware stack levels required when called: 12
   635 ;; This function calls:
   636 ;;		_HandlePacketLoop
   637 ;;		_InitRadio
   638 ;;		_SYSTEM_Initialize
   639 ;;		_TMR1_SetInterruptHandler
   640 ;; This function is called by:
   641 ;;		Startup code after reset
   642 ;; This function uses a non-reentrant model
   643 ;;
   644                           
   645                           	psect	text0
   646  001DC0                     __ptext0:
   647                           	callstack 0
   648  001DC0                     _main:
   649                           	callstack 19
   650  001DC0                     
   651                           ;main.c: 14:     SYSTEM_Initialize();
   652  001DC0  EC4C  F00F         	call	_SYSTEM_Initialize	;wreg free
   653  001DC4                     
   654                           ;main.c: 21:     (INTCONbits.GIE = 1);
   655  001DC4  8EF2               	bsf	242,7,c	;volatile
   656  001DC6                     
   657                           ;main.c: 27:     (INTCONbits.PEIE = 1);
   658  001DC6  8CF2               	bsf	242,6,c	;volatile
   659                           
   660                           ;main.c: 31:     TMR1_SetInterruptHandler(TimerInterruptHandler);
   661  001DC8  0E46               	movlw	low _TimerInterruptHandler
   662  001DCA  6E21               	movwf	TMR1_SetInterruptHandler@InterruptHandler^0,c
   663  001DCC  0E1C               	movlw	high _TimerInterruptHandler
   664  001DCE  6E22               	movwf	(TMR1_SetInterruptHandler@InterruptHandler+1)^0,c
   665  001DD0  EC74  F00F         	call	_TMR1_SetInterruptHandler	;wreg free
   666  001DD4                     
   667                           ;main.c: 33:     InitRadio();
   668  001DD4  EC3B  F009         	call	_InitRadio	;wreg free
   669  001DD8                     l2717:
   670                           
   671                           ;main.c: 36:         HandlePacketLoop();
   672  001DD8  EC03  F008         	call	_HandlePacketLoop	;wreg free
   673  001DDC                     
   674                           ;main.c: 37:         __nop();
   675  001DDC  F000               	nop	
   676  001DDE  EFEC  F00E         	goto	l2717
   677  001DE2  EF3E  F000         	goto	start
   678  001DE6                     __end_of_main:
   679                           	callstack 0
   680                           
   681 ;; *************** function _SYSTEM_Initialize *****************
   682 ;; Defined at:
   683 ;;		line 50 in file "mcc_generated_files/mcc.c"
   684 ;; Parameters:    Size  Location     Type
   685 ;;		None
   686 ;; Auto vars:     Size  Location     Type
   687 ;;		None
   688 ;; Return value:  Size  Location     Type
   689 ;;                  1    wreg      void 
   690 ;; Registers used:
   691 ;;		wreg, status,2, status,0, cstack
   692 ;; Tracked objects:
   693 ;;		On entry : 0/0
   694 ;;		On exit  : 0/0
   695 ;;		Unchanged: 0/0
   696 ;; Data sizes:     COMRAM   BANK0   BANK1   BANK2   BANK3   BANK4   BANK5   BANK6   BANK7   BANK8   BANK9  BANK10  BANK1
      +1  BANK12  BANK13  BANK14  BANK15
   697 ;;      Params:         0       0       0       0       0       0       0       0       0       0       0       0       
      +0       0       0       0       0
   698 ;;      Locals:         0       0       0       0       0       0       0       0       0       0       0       0       
      +0       0       0       0       0
   699 ;;      Temps:          0       0       0       0       0       0       0       0       0       0       0       0       
      +0       0       0       0       0
   700 ;;      Totals:         0       0       0       0       0       0       0       0       0       0       0       0       
      +0       0       0       0       0
   701 ;;Total ram usage:        0 bytes
   702 ;; Hardware stack levels used: 1
   703 ;; Hardware stack levels required when called: 8
   704 ;; This function calls:
   705 ;;		_INTERRUPT_Initialize
   706 ;;		_OSCILLATOR_Initialize
   707 ;;		_PIN_MANAGER_Initialize
   708 ;;		_SPI1_Initialize
   709 ;;		_TMR1_Initialize
   710 ;; This function is called by:
   711 ;;		_main
   712 ;; This function uses a non-reentrant model
   713 ;;
   714                           
   715                           	psect	text1
   716  001E98                     __ptext1:
   717                           	callstack 0
   718  001E98                     _SYSTEM_Initialize:
   719                           	callstack 22
   720  001E98                     
   721                           ;mcc_generated_files/mcc.c: 53:     INTERRUPT_Initialize();
   722  001E98  EC79  F00F         	call	_INTERRUPT_Initialize	;wreg free
   723  001E9C                     
   724                           ;mcc_generated_files/mcc.c: 54:     SPI1_Initialize();
   725  001E9C  EC57  F00F         	call	_SPI1_Initialize	;wreg free
   726  001EA0                     
   727                           ;mcc_generated_files/mcc.c: 55:     PIN_MANAGER_Initialize();
   728  001EA0  ECA1  F00E         	call	_PIN_MANAGER_Initialize	;wreg free
   729  001EA4                     
   730                           ;mcc_generated_files/mcc.c: 56:     OSCILLATOR_Initialize();
   731  001EA4  EC68  F00F         	call	_OSCILLATOR_Initialize	;wreg free
   732  001EA8                     
   733                           ;mcc_generated_files/mcc.c: 57:     TMR1_Initialize();
   734  001EA8  ECB7  F00E         	call	_TMR1_Initialize	;wreg free
   735  001EAC  0012               	return		;funcret
   736  001EAE                     __end_of_SYSTEM_Initialize:
   737                           	callstack 0
   738                           
   739 ;; *************** function _TMR1_Initialize *****************
   740 ;; Defined at:
   741 ;;		line 64 in file "mcc_generated_files/tmr1.c"
   742 ;; Parameters:    Size  Location     Type
   743 ;;		None
   744 ;; Auto vars:     Size  Location     Type
   745 ;;		None
   746 ;; Return value:  Size  Location     Type
   747 ;;                  1    wreg      void 
   748 ;; Registers used:
   749 ;;		wreg, status,2, status,0, cstack
   750 ;; Tracked objects:
   751 ;;		On entry : 0/0
   752 ;;		On exit  : 0/0
   753 ;;		Unchanged: 0/0
   754 ;; Data sizes:     COMRAM   BANK0   BANK1   BANK2   BANK3   BANK4   BANK5   BANK6   BANK7   BANK8   BANK9  BANK10  BANK1
      +1  BANK12  BANK13  BANK14  BANK15
   755 ;;      Params:         0       0       0       0       0       0       0       0       0       0       0       0       
      +0       0       0       0       0
   756 ;;      Locals:         0       0       0       0       0       0       0       0       0       0       0       0       
      +0       0       0       0       0
   757 ;;      Temps:          0       0       0       0       0       0       0       0       0       0       0       0       
      +0       0       0       0       0
   758 ;;      Totals:         0       0       0       0       0       0       0       0       0       0       0       0       
      +0       0       0       0       0
   759 ;;Total ram usage:        0 bytes
   760 ;; Hardware stack levels used: 1
   761 ;; Hardware stack levels required when called: 7
   762 ;; This function calls:
   763 ;;		_TMR1_SetInterruptHandler
   764 ;; This function is called by:
   765 ;;		_SYSTEM_Initialize
   766 ;; This function uses a non-reentrant model
   767 ;;
   768                           
   769                           	psect	text2
   770  001D6E                     __ptext2:
   771                           	callstack 0
   772  001D6E                     _TMR1_Initialize:
   773                           	callstack 22
   774  001D6E                     
   775                           ;mcc_generated_files/tmr1.c: 69:     T1GCON = 0x00;
   776  001D6E  0E00               	movlw	0
   777  001D70  6ECC               	movwf	204,c	;volatile
   778                           
   779                           ;mcc_generated_files/tmr1.c: 72:     TMR1H = 0x0B;
   780  001D72  0E0B               	movlw	11
   781  001D74  6ECF               	movwf	207,c	;volatile
   782                           
   783                           ;mcc_generated_files/tmr1.c: 75:     TMR1L = 0xDC;
   784  001D76  0EDC               	movlw	220
   785  001D78  6ECE               	movwf	206,c	;volatile
   786  001D7A                     
   787                           ;mcc_generated_files/tmr1.c: 78:     timer1ReloadVal=TMR1;
   788  001D7A  CFCE F039          	movff	4046,_timer1ReloadVal	;volatile
   789  001D7E  CFCF F03A          	movff	4047,_timer1ReloadVal+1	;volatile
   790  001D82                     
   791                           ;mcc_generated_files/tmr1.c: 81:     PIR1bits.TMR1IF = 0;
   792  001D82  909E               	bcf	158,0,c	;volatile
   793  001D84                     
   794                           ;mcc_generated_files/tmr1.c: 84:     PIE1bits.TMR1IE = 1;
   795  001D84  809D               	bsf	157,0,c	;volatile
   796  001D86                     
   797                           ;mcc_generated_files/tmr1.c: 87:     TMR1_SetInterruptHandler(TMR1_DefaultInterruptHandl
      +                          er);
   798  001D86  0EF6               	movlw	low _TMR1_DefaultInterruptHandler
   799  001D88  6E21               	movwf	TMR1_SetInterruptHandler@InterruptHandler^0,c
   800  001D8A  0E1E               	movlw	high _TMR1_DefaultInterruptHandler
   801  001D8C  6E22               	movwf	(TMR1_SetInterruptHandler@InterruptHandler+1)^0,c
   802  001D8E  EC74  F00F         	call	_TMR1_SetInterruptHandler	;wreg free
   803  001D92                     
   804                           ;mcc_generated_files/tmr1.c: 90:     T1CON = 0x21;
   805  001D92  0E21               	movlw	33
   806  001D94  6ECD               	movwf	205,c	;volatile
   807  001D96  0012               	return		;funcret
   808  001D98                     __end_of_TMR1_Initialize:
   809                           	callstack 0
   810                           
   811 ;; *************** function _TMR1_SetInterruptHandler *****************
   812 ;; Defined at:
   813 ;;		line 172 in file "mcc_generated_files/tmr1.c"
   814 ;; Parameters:    Size  Location     Type
   815 ;;  InterruptHan    2   32[COMRAM] PTR FTN()void 
   816 ;;		 -> TimerInterruptHandler(1), TMR1_DefaultInterruptHandler(1), 
   817 ;; Auto vars:     Size  Location     Type
   818 ;;		None
   819 ;; Return value:  Size  Location     Type
   820 ;;                  1    wreg      void 
   821 ;; Registers used:
   822 ;;		wreg, status,2, status,0
   823 ;; Tracked objects:
   824 ;;		On entry : 0/0
   825 ;;		On exit  : 0/0
   826 ;;		Unchanged: 0/0
   827 ;; Data sizes:     COMRAM   BANK0   BANK1   BANK2   BANK3   BANK4   BANK5   BANK6   BANK7   BANK8   BANK9  BANK10  BANK1
      +1  BANK12  BANK13  BANK14  BANK15
   828 ;;      Params:         2       0       0       0       0       0       0       0       0       0       0       0       
      +0       0       0       0       0
   829 ;;      Locals:         0       0       0       0       0       0       0       0       0       0       0       0       
      +0       0       0       0       0
   830 ;;      Temps:          0       0       0       0       0       0       0       0       0       0       0       0       
      +0       0       0       0       0
   831 ;;      Totals:         2       0       0       0       0       0       0       0       0       0       0       0       
      +0       0       0       0       0
   832 ;;Total ram usage:        2 bytes
   833 ;; Hardware stack levels used: 1
   834 ;; Hardware stack levels required when called: 6
   835 ;; This function calls:
   836 ;;		Nothing
   837 ;; This function is called by:
   838 ;;		_TMR1_Initialize
   839 ;;		_main
   840 ;; This function uses a non-reentrant model
   841 ;;
   842                           
   843                           	psect	text3
   844  001EE8                     __ptext3:
   845                           	callstack 0
   846  001EE8                     _TMR1_SetInterruptHandler:
   847                           	callstack 24
   848  001EE8                     
   849                           ;mcc_generated_files/tmr1.c: 173:     TMR1_InterruptHandler = InterruptHandler;
   850  001EE8  C021  F037         	movff	TMR1_SetInterruptHandler@InterruptHandler,_TMR1_InterruptHandler
   851  001EEC  C022  F038         	movff	TMR1_SetInterruptHandler@InterruptHandler+1,_TMR1_InterruptHandler+1
   852  001EF0  0012               	return		;funcret
   853  001EF2                     __end_of_TMR1_SetInterruptHandler:
   854                           	callstack 0
   855                           
   856 ;; *************** function _SPI1_Initialize *****************
   857 ;; Defined at:
   858 ;;		line 62 in file "mcc_generated_files/spi1.c"
   859 ;; Parameters:    Size  Location     Type
   860 ;;		None
   861 ;; Auto vars:     Size  Location     Type
   862 ;;		None
   863 ;; Return value:  Size  Location     Type
   864 ;;                  1    wreg      void 
   865 ;; Registers used:
   866 ;;		wreg, status,2
   867 ;; Tracked objects:
   868 ;;		On entry : 0/0
   869 ;;		On exit  : 0/0
   870 ;;		Unchanged: 0/0
   871 ;; Data sizes:     COMRAM   BANK0   BANK1   BANK2   BANK3   BANK4   BANK5   BANK6   BANK7   BANK8   BANK9  BANK10  BANK1
      +1  BANK12  BANK13  BANK14  BANK15
   872 ;;      Params:         0       0       0       0       0       0       0       0       0       0       0       0       
      +0       0       0       0       0
   873 ;;      Locals:         0       0       0       0       0       0       0       0       0       0       0       0       
      +0       0       0       0       0
   874 ;;      Temps:          0       0       0       0       0       0       0       0       0       0       0       0       
      +0       0       0       0       0
   875 ;;      Totals:         0       0       0       0       0       0       0       0       0       0       0       0       
      +0       0       0       0       0
   876 ;;Total ram usage:        0 bytes
   877 ;; Hardware stack levels used: 1
   878 ;; Hardware stack levels required when called: 6
   879 ;; This function calls:
   880 ;;		Nothing
   881 ;; This function is called by:
   882 ;;		_SYSTEM_Initialize
   883 ;; This function uses a non-reentrant model
   884 ;;
   885                           
   886                           	psect	text4
   887  001EAE                     __ptext4:
   888                           	callstack 0
   889  001EAE                     _SPI1_Initialize:
   890                           	callstack 23
   891  001EAE                     
   892                           ;mcc_generated_files/spi1.c: 65:     SSP1STAT = 0x40;
   893  001EAE  0E40               	movlw	64
   894  001EB0  6EC7               	movwf	199,c	;volatile
   895                           
   896                           ;mcc_generated_files/spi1.c: 66:     SSP1CON1 = 0x00;
   897  001EB2  0E00               	movlw	0
   898  001EB4  6EC6               	movwf	198,c	;volatile
   899                           
   900                           ;mcc_generated_files/spi1.c: 67:     SSP1ADD = 0x01;
   901  001EB6  0E01               	movlw	1
   902  001EB8  6EC8               	movwf	200,c	;volatile
   903  001EBA                     
   904                           ;mcc_generated_files/spi1.c: 68:     TRISCbits.TRISC3 = 0;
   905  001EBA  9694               	bcf	148,3,c	;volatile
   906  001EBC                     
   907                           ;mcc_generated_files/spi1.c: 69:     SSP1CON1bits.SSPEN = 0;
   908  001EBC  9AC6               	bcf	198,5,c	;volatile
   909  001EBE  0012               	return		;funcret
   910  001EC0                     __end_of_SPI1_Initialize:
   911                           	callstack 0
   912                           
   913 ;; *************** function _PIN_MANAGER_Initialize *****************
   914 ;; Defined at:
   915 ;;		line 55 in file "mcc_generated_files/pin_manager.c"
   916 ;; Parameters:    Size  Location     Type
   917 ;;		None
   918 ;; Auto vars:     Size  Location     Type
   919 ;;		None
   920 ;; Return value:  Size  Location     Type
   921 ;;                  1    wreg      void 
   922 ;; Registers used:
   923 ;;		wreg, status,2
   924 ;; Tracked objects:
   925 ;;		On entry : 0/0
   926 ;;		On exit  : 0/0
   927 ;;		Unchanged: 0/0
   928 ;; Data sizes:     COMRAM   BANK0   BANK1   BANK2   BANK3   BANK4   BANK5   BANK6   BANK7   BANK8   BANK9  BANK10  BANK1
      +1  BANK12  BANK13  BANK14  BANK15
   929 ;;      Params:         0       0       0       0       0       0       0       0       0       0       0       0       
      +0       0       0       0       0
   930 ;;      Locals:         0       0       0       0       0       0       0       0       0       0       0       0       
      +0       0       0       0       0
   931 ;;      Temps:          0       0       0       0       0       0       0       0       0       0       0       0       
      +0       0       0       0       0
   932 ;;      Totals:         0       0       0       0       0       0       0       0       0       0       0       0       
      +0       0       0       0       0
   933 ;;Total ram usage:        0 bytes
   934 ;; Hardware stack levels used: 1
   935 ;; Hardware stack levels required when called: 6
   936 ;; This function calls:
   937 ;;		Nothing
   938 ;; This function is called by:
   939 ;;		_SYSTEM_Initialize
   940 ;; This function uses a non-reentrant model
   941 ;;
   942                           
   943                           	psect	text5
   944  001D42                     __ptext5:
   945                           	callstack 0
   946  001D42                     _PIN_MANAGER_Initialize:
   947                           	callstack 23
   948  001D42                     
   949                           ;mcc_generated_files/pin_manager.c: 60:     LATA = 0x00;
   950  001D42  0E00               	movlw	0
   951  001D44  6E89               	movwf	137,c	;volatile
   952                           
   953                           ;mcc_generated_files/pin_manager.c: 61:     LATB = 0x00;
   954  001D46  0E00               	movlw	0
   955  001D48  6E8A               	movwf	138,c	;volatile
   956                           
   957                           ;mcc_generated_files/pin_manager.c: 62:     LATC = 0x00;
   958  001D4A  0E00               	movlw	0
   959  001D4C  6E8B               	movwf	139,c	;volatile
   960                           
   961                           ;mcc_generated_files/pin_manager.c: 67:     TRISA = 0xFD;
   962  001D4E  0EFD               	movlw	253
   963  001D50  6E92               	movwf	146,c	;volatile
   964  001D52                     
   965                           ;mcc_generated_files/pin_manager.c: 68:     TRISB = 0xFF;
   966  001D52  6893               	setf	147,c	;volatile
   967                           
   968                           ;mcc_generated_files/pin_manager.c: 69:     TRISC = 0xD1;
   969  001D54  0ED1               	movlw	209
   970  001D56  6E94               	movwf	148,c	;volatile
   971                           
   972                           ;mcc_generated_files/pin_manager.c: 74:     ANSELC = 0xC4;
   973  001D58  0EC4               	movlw	196
   974  001D5A  010F               	movlb	15	; () banked
   975  001D5C  6F3A               	movwf	58,b	;volatile
   976                           
   977                           ;mcc_generated_files/pin_manager.c: 75:     ANSELB = 0x3F;
   978  001D5E  0E3F               	movlw	63
   979  001D60  6F39               	movwf	57,b	;volatile
   980                           
   981                           ;mcc_generated_files/pin_manager.c: 76:     ANSELA = 0x2D;
   982  001D62  0E2D               	movlw	45
   983  001D64  6F38               	movwf	56,b	;volatile
   984                           
   985                           ;mcc_generated_files/pin_manager.c: 81:     WPUB = 0x00;
   986  001D66  0E00               	movlw	0
   987  001D68  6E61               	movwf	97,c	;volatile
   988  001D6A                     
   989                           ; BSR set to: 15
   990                           ;mcc_generated_files/pin_manager.c: 82:     INTCON2bits.nRBPU = 1;
   991  001D6A  8EF1               	bsf	241,7,c	;volatile
   992  001D6C                     
   993                           ; BSR set to: 15
   994  001D6C  0012               	return		;funcret
   995  001D6E                     __end_of_PIN_MANAGER_Initialize:
   996                           	callstack 0
   997                           
   998 ;; *************** function _OSCILLATOR_Initialize *****************
   999 ;; Defined at:
  1000 ;;		line 60 in file "mcc_generated_files/mcc.c"
  1001 ;; Parameters:    Size  Location     Type
  1002 ;;		None
  1003 ;; Auto vars:     Size  Location     Type
  1004 ;;		None
  1005 ;; Return value:  Size  Location     Type
  1006 ;;                  1    wreg      void 
  1007 ;; Registers used:
  1008 ;;		wreg, status,2
  1009 ;; Tracked objects:
  1010 ;;		On entry : 0/0
  1011 ;;		On exit  : 0/0
  1012 ;;		Unchanged: 0/0
  1013 ;; Data sizes:     COMRAM   BANK0   BANK1   BANK2   BANK3   BANK4   BANK5   BANK6   BANK7   BANK8   BANK9  BANK10  BANK1
      +1  BANK12  BANK13  BANK14  BANK15
  1014 ;;      Params:         0       0       0       0       0       0       0       0       0       0       0       0       
      +0       0       0       0       0
  1015 ;;      Locals:         0       0       0       0       0       0       0       0       0       0       0       0       
      +0       0       0       0       0
  1016 ;;      Temps:          0       0       0       0       0       0       0       0       0       0       0       0       
      +0       0       0       0       0
  1017 ;;      Totals:         0       0       0       0       0       0       0       0       0       0       0       0       
      +0       0       0       0       0
  1018 ;;Total ram usage:        0 bytes
  1019 ;; Hardware stack levels used: 1
  1020 ;; Hardware stack levels required when called: 6
  1021 ;; This function calls:
  1022 ;;		Nothing
  1023 ;; This function is called by:
  1024 ;;		_SYSTEM_Initialize
  1025 ;; This function uses a non-reentrant model
  1026 ;;
  1027                           
  1028                           	psect	text6
  1029  001ED0                     __ptext6:
  1030                           	callstack 0
  1031  001ED0                     _OSCILLATOR_Initialize:
  1032                           	callstack 23
  1033  001ED0                     
  1034                           ;mcc_generated_files/mcc.c: 63:     OSCCON = 0x30;
  1035  001ED0  0E30               	movlw	48
  1036  001ED2  6ED3               	movwf	211,c	;volatile
  1037                           
  1038                           ;mcc_generated_files/mcc.c: 65:     OSCCON2 = 0x04;
  1039  001ED4  0E04               	movlw	4
  1040  001ED6  6ED2               	movwf	210,c	;volatile
  1041                           
  1042                           ;mcc_generated_files/mcc.c: 67:     OSCTUNE = 0x00;
  1043  001ED8  0E00               	movlw	0
  1044  001EDA  6E9B               	movwf	155,c	;volatile
  1045  001EDC  0012               	return		;funcret
  1046  001EDE                     __end_of_OSCILLATOR_Initialize:
  1047                           	callstack 0
  1048                           
  1049 ;; *************** function _INTERRUPT_Initialize *****************
  1050 ;; Defined at:
  1051 ;;		line 52 in file "mcc_generated_files/interrupt_manager.c"
  1052 ;; Parameters:    Size  Location     Type
  1053 ;;		None
  1054 ;; Auto vars:     Size  Location     Type
  1055 ;;		None
  1056 ;; Return value:  Size  Location     Type
  1057 ;;                  1    wreg      void 
  1058 ;; Registers used:
  1059 ;;		None
  1060 ;; Tracked objects:
  1061 ;;		On entry : 0/0
  1062 ;;		On exit  : 0/0
  1063 ;;		Unchanged: 0/0
  1064 ;; Data sizes:     COMRAM   BANK0   BANK1   BANK2   BANK3   BANK4   BANK5   BANK6   BANK7   BANK8   BANK9  BANK10  BANK1
      +1  BANK12  BANK13  BANK14  BANK15
  1065 ;;      Params:         0       0       0       0       0       0       0       0       0       0       0       0       
      +0       0       0       0       0
  1066 ;;      Locals:         0       0       0       0       0       0       0       0       0       0       0       0       
      +0       0       0       0       0
  1067 ;;      Temps:          0       0       0       0       0       0       0       0       0       0       0       0       
      +0       0       0       0       0
  1068 ;;      Totals:         0       0       0       0       0       0       0       0       0       0       0       0       
      +0       0       0       0       0
  1069 ;;Total ram usage:        0 bytes
  1070 ;; Hardware stack levels used: 1
  1071 ;; Hardware stack levels required when called: 6
  1072 ;; This function calls:
  1073 ;;		Nothing
  1074 ;; This function is called by:
  1075 ;;		_SYSTEM_Initialize
  1076 ;; This function uses a non-reentrant model
  1077 ;;
  1078                           
  1079                           	psect	text7
  1080  001EF2                     __ptext7:
  1081                           	callstack 0
  1082  001EF2                     _INTERRUPT_Initialize:
  1083                           	callstack 23
  1084  001EF2                     
  1085                           ;mcc_generated_files/interrupt_manager.c: 55:     RCONbits.IPEN = 0;
  1086  001EF2  9ED0               	bcf	208,7,c	;volatile
  1087  001EF4  0012               	return		;funcret
  1088  001EF6                     __end_of_INTERRUPT_Initialize:
  1089                           	callstack 0
  1090                           
  1091 ;; *************** function _InitRadio *****************
  1092 ;; Defined at:
  1093 ;;		line 23 in file "../lib/handler_lib.c"
  1094 ;; Parameters:    Size  Location     Type
  1095 ;;		None
  1096 ;; Auto vars:     Size  Location     Type
  1097 ;;  i               1   43[COMRAM] unsigned char 
  1098 ;; Return value:  Size  Location     Type
  1099 ;;                  1    wreg      void 
  1100 ;; Registers used:
  1101 ;;		wreg, fsr2l, fsr2h, status,2, status,0, tblptrl, tblptrh, tblptru, prodl, prodh, cstack
  1102 ;; Tracked objects:
  1103 ;;		On entry : 0/0
  1104 ;;		On exit  : 0/0
  1105 ;;		Unchanged: 0/0
  1106 ;; Data sizes:     COMRAM   BANK0   BANK1   BANK2   BANK3   BANK4   BANK5   BANK6   BANK7   BANK8   BANK9  BANK10  BANK1
      +1  BANK12  BANK13  BANK14  BANK15
  1107 ;;      Params:         0       0       0       0       0       0       0       0       0       0       0       0       
      +0       0       0       0       0
  1108 ;;      Locals:         1       0       0       0       0       0       0       0       0       0       0       0       
      +0       0       0       0       0
  1109 ;;      Temps:          0       0       0       0       0       0       0       0       0       0       0       0       
      +0       0       0       0       0
  1110 ;;      Totals:         1       0       0       0       0       0       0       0       0       0       0       0       
      +0       0       0       0       0
  1111 ;;Total ram usage:        1 bytes
  1112 ;; Hardware stack levels used: 1
  1113 ;; Hardware stack levels required when called: 8
  1114 ;; This function calls:
  1115 ;;		_memcpy
  1116 ;;		_nrf24_rf_init
  1117 ;;		_nrf24_write_buff
  1118 ;;		_nrf24_write_register
  1119 ;; This function is called by:
  1120 ;;		_main
  1121 ;; This function uses a non-reentrant model
  1122 ;;
  1123                           
  1124                           	psect	text8
  1125  001276                     __ptext8:
  1126                           	callstack 0
  1127  001276                     _InitRadio:
  1128                           	callstack 22
  1129  001276                     
  1130                           ;../lib/handler_lib.c: 24:     nrf24_rf_init();
  1131  001276  EC60  F00F         	call	_nrf24_rf_init	;wreg free
  1132  00127A                     
  1133                           ;../lib/handler_lib.c: 26:     nrf24_write_buff(0x10, DEFAULT_PIPE_ADDR, 5);
  1134  00127A  0E2E               	movlw	low _DEFAULT_PIPE_ADDR
  1135  00127C  6E22               	movwf	nrf24_write_buff@buffer^0,c
  1136  00127E  0E00               	movlw	high _DEFAULT_PIPE_ADDR
  1137  001280  6E23               	movwf	(nrf24_write_buff@buffer+1)^0,c
  1138  001282  0E05               	movlw	5
  1139  001284  6E24               	movwf	nrf24_write_buff@bytes^0,c
  1140  001286  0E10               	movlw	16
  1141  001288  EC48  F00E         	call	_nrf24_write_buff
  1142  00128C                     
  1143                           ;../lib/handler_lib.c: 27:     nrf24_write_buff(0x0A, DEFAULT_PIPE_ADDR, 5);
  1144  00128C  0E2E               	movlw	low _DEFAULT_PIPE_ADDR
  1145  00128E  6E22               	movwf	nrf24_write_buff@buffer^0,c
  1146  001290  0E00               	movlw	high _DEFAULT_PIPE_ADDR
  1147  001292  6E23               	movwf	(nrf24_write_buff@buffer+1)^0,c
  1148  001294  0E05               	movlw	5
  1149  001296  6E24               	movwf	nrf24_write_buff@bytes^0,c
  1150  001298  0E0A               	movlw	10
  1151  00129A  EC48  F00E         	call	_nrf24_write_buff
  1152  00129E                     
  1153                           ;../lib/handler_lib.c: 29:     nrf24_write_register(0x00, 0b1111010);
  1154  00129E  0E7A               	movlw	122
  1155  0012A0  6E22               	movwf	nrf24_write_register@value^0,c
  1156  0012A2  0E00               	movlw	0
  1157  0012A4  EC2E  F00C         	call	_nrf24_write_register
  1158  0012A8                     
  1159                           ;../lib/handler_lib.c: 31:     nrf24_write_register(0x01, 0b1);
  1160  0012A8  0E01               	movlw	1
  1161  0012AA  6E22               	movwf	nrf24_write_register@value^0,c
  1162  0012AC  0E01               	movlw	1
  1163  0012AE  EC2E  F00C         	call	_nrf24_write_register
  1164  0012B2                     
  1165                           ;../lib/handler_lib.c: 33:     nrf24_write_register(0x02, 0b1);
  1166  0012B2  0E01               	movlw	1
  1167  0012B4  6E22               	movwf	nrf24_write_register@value^0,c
  1168  0012B6  0E02               	movlw	2
  1169  0012B8  EC2E  F00C         	call	_nrf24_write_register
  1170  0012BC                     
  1171                           ;../lib/handler_lib.c: 35:     nrf24_write_register(0x03, 0b11);
  1172  0012BC  0E03               	movlw	3
  1173  0012BE  6E22               	movwf	nrf24_write_register@value^0,c
  1174  0012C0  0E03               	movlw	3
  1175  0012C2  EC2E  F00C         	call	_nrf24_write_register
  1176  0012C6                     
  1177                           ;../lib/handler_lib.c: 37:     nrf24_write_register(0x04, 0b11011111);
  1178  0012C6  0EDF               	movlw	223
  1179  0012C8  6E22               	movwf	nrf24_write_register@value^0,c
  1180  0012CA  0E04               	movlw	4
  1181  0012CC  EC2E  F00C         	call	_nrf24_write_register
  1182  0012D0                     
  1183                           ;../lib/handler_lib.c: 39:     nrf24_write_register(0x05, 115);
  1184  0012D0  0E73               	movlw	115
  1185  0012D2  6E22               	movwf	nrf24_write_register@value^0,c
  1186  0012D4  0E05               	movlw	5
  1187  0012D6  EC2E  F00C         	call	_nrf24_write_register
  1188  0012DA                     
  1189                           ;../lib/handler_lib.c: 41:     nrf24_write_register(0x06, 0b1110);
  1190  0012DA  0E0E               	movlw	14
  1191  0012DC  6E22               	movwf	nrf24_write_register@value^0,c
  1192  0012DE  0E06               	movlw	6
  1193  0012E0  EC2E  F00C         	call	_nrf24_write_register
  1194  0012E4                     
  1195                           ;../lib/handler_lib.c: 43:     nrf24_write_register(0x1D, 0b110);
  1196  0012E4  0E06               	movlw	6
  1197  0012E6  6E22               	movwf	nrf24_write_register@value^0,c
  1198  0012E8  0E1D               	movlw	29
  1199  0012EA  EC2E  F00C         	call	_nrf24_write_register
  1200  0012EE                     
  1201                           ;../lib/handler_lib.c: 45:     nrf24_write_register(0x1C, 0b1);
  1202  0012EE  0E01               	movlw	1
  1203  0012F0  6E22               	movwf	nrf24_write_register@value^0,c
  1204  0012F2  0E1C               	movlw	28
  1205  0012F4  EC2E  F00C         	call	_nrf24_write_register
  1206  0012F8                     
  1207                           ;../lib/handler_lib.c: 46:     _delay((unsigned long)((10)*(1000000/4000000.0)));
  1208  0012F8  D000               	nop2		;2 cycle nop
  1209  0012FA                     
  1210                           ;../lib/handler_lib.c: 49:     config.IsConfigured = 0;
  1211  0012FA  0E00               	movlw	0
  1212  0012FC  0100               	movlb	0	; () banked
  1213  0012FE  6FA2               	movwf	_config& (0+255),b
  1214  001300                     
  1215                           ; BSR set to: 0
  1216                           ;../lib/handler_lib.c: 50:     config.PingInterval = PingInterval;
  1217  001300  C02D  F0A6         	movff	_PingInterval,_config+4
  1218  001304                     
  1219                           ; BSR set to: 0
  1220                           ;../lib/handler_lib.c: 51:     config.RFChannel = 115;
  1221  001304  0E73               	movlw	115
  1222  001306  6FA7               	movwf	(_config+5)& (0+255),b
  1223  001308                     
  1224                           ; BSR set to: 0
  1225                           ;../lib/handler_lib.c: 52:     memcpy(config.PipeAddr1, DEFAULT_PIPE_ADDR, 5);
  1226  001308  0EA8               	movlw	low (_config+6)
  1227  00130A  6E21               	movwf	memcpy@d1^0,c
  1228  00130C  0E00               	movlw	high (_config+6)
  1229  00130E  6E22               	movwf	(memcpy@d1+1)^0,c
  1230  001310  0E2E               	movlw	low _DEFAULT_PIPE_ADDR
  1231  001312  6E23               	movwf	memcpy@s1^0,c
  1232  001314  0E00               	movlw	high _DEFAULT_PIPE_ADDR
  1233  001316  6E24               	movwf	(memcpy@s1+1)^0,c
  1234  001318  0E00               	movlw	0
  1235  00131A  6E26               	movwf	(memcpy@n+1)^0,c
  1236  00131C  0E05               	movlw	5
  1237  00131E  6E25               	movwf	memcpy@n^0,c
  1238  001320  EC87  F00D         	call	_memcpy	;wreg free
  1239  001324                     
  1240                           ;../lib/handler_lib.c: 53:     memcpy(config.PipeAddr2, DEFAULT_PIPE_ADDR, 5);
  1241  001324  0EAD               	movlw	low (_config+11)
  1242  001326  6E21               	movwf	memcpy@d1^0,c
  1243  001328  0E00               	movlw	high (_config+11)
  1244  00132A  6E22               	movwf	(memcpy@d1+1)^0,c
  1245  00132C  0E2E               	movlw	low _DEFAULT_PIPE_ADDR
  1246  00132E  6E23               	movwf	memcpy@s1^0,c
  1247  001330  0E00               	movlw	high _DEFAULT_PIPE_ADDR
  1248  001332  6E24               	movwf	(memcpy@s1+1)^0,c
  1249  001334  0E00               	movlw	0
  1250  001336  6E26               	movwf	(memcpy@n+1)^0,c
  1251  001338  0E05               	movlw	5
  1252  00133A  6E25               	movwf	memcpy@n^0,c
  1253  00133C  EC87  F00D         	call	_memcpy	;wreg free
  1254  001340                     
  1255                           ;../lib/handler_lib.c: 54:     memcpy(config.Address, BoardAddress, 3);
  1256  001340  0EA3               	movlw	low (_config+1)
  1257  001342  6E21               	movwf	memcpy@d1^0,c
  1258  001344  0E00               	movlw	high (_config+1)
  1259  001346  6E22               	movwf	(memcpy@d1+1)^0,c
  1260  001348  0E34               	movlw	low _BoardAddress
  1261  00134A  6E23               	movwf	memcpy@s1^0,c
  1262  00134C  0E00               	movlw	high _BoardAddress
  1263  00134E  6E24               	movwf	(memcpy@s1+1)^0,c
  1264  001350  0E00               	movlw	0
  1265  001352  6E26               	movwf	(memcpy@n+1)^0,c
  1266  001354  0E03               	movlw	3
  1267  001356  6E25               	movwf	memcpy@n^0,c
  1268  001358  EC87  F00D         	call	_memcpy	;wreg free
  1269  00135C                     
  1270                           ;../lib/handler_lib.c: 55:     config.ARD = 0xA;
  1271  00135C  0E0A               	movlw	10
  1272  00135E  0100               	movlb	0	; () banked
  1273  001360  6FB2               	movwf	(_config+16)& (0+255),b
  1274  001362                     
  1275                           ; BSR set to: 0
  1276                           ;../lib/handler_lib.c: 58:     for (uint8_t i = 0; i < 8; i++) {
  1277  001362  0E00               	movlw	0
  1278  001364  6E2C               	movwf	InitRadio@i^0,c
  1279  001366                     l2653:
  1280                           
  1281                           ;../lib/handler_lib.c: 59:         packetsTX[i].free = 1;
  1282  001366  502C               	movf	InitRadio@i^0,w,c
  1283  001368  0D26               	mullw	38
  1284  00136A  0E16               	movlw	low (_packetsTX+32)
  1285  00136C  24F3               	addwf	243,w,c
  1286  00136E  6ED9               	movwf	fsr2l,c
  1287  001370  0E01               	movlw	high (_packetsTX+32)
  1288  001372  20F4               	addwfc	prodh,w,c
  1289  001374  6EDA               	movwf	fsr2h,c
  1290  001376  0E01               	movlw	1
  1291  001378  6EDF               	movwf	indf2,c
  1292                           
  1293                           ;../lib/handler_lib.c: 60:         packetsTX[i].size = 0;
  1294  00137A  502C               	movf	InitRadio@i^0,w,c
  1295  00137C  0D26               	mullw	38
  1296  00137E  0E17               	movlw	low (_packetsTX+33)
  1297  001380  24F3               	addwf	243,w,c
  1298  001382  6ED9               	movwf	fsr2l,c
  1299  001384  0E01               	movlw	high (_packetsTX+33)
  1300  001386  20F4               	addwfc	prodh,w,c
  1301  001388  6EDA               	movwf	fsr2h,c
  1302  00138A  0E00               	movlw	0
  1303  00138C  6EDF               	movwf	indf2,c
  1304  00138E                     
  1305                           ;../lib/handler_lib.c: 61:     }
  1306  00138E  2A2C               	incf	InitRadio@i^0,f,c
  1307  001390  0E07               	movlw	7
  1308  001392  642C               	cpfsgt	InitRadio@i^0,c
  1309  001394  EFCE  F009         	goto	u1001
  1310  001398  EFD0  F009         	goto	u1000
  1311  00139C                     u1001:
  1312  00139C  EFB3  F009         	goto	l2653
  1313  0013A0                     u1000:
  1314  0013A0  0012               	return		;funcret
  1315  0013A2                     __end_of_InitRadio:
  1316                           	callstack 0
  1317                           
  1318 ;; *************** function _nrf24_rf_init *****************
  1319 ;; Defined at:
  1320 ;;		line 70 in file "../lib/nrf24_lib.c"
  1321 ;; Parameters:    Size  Location     Type
  1322 ;;		None
  1323 ;; Auto vars:     Size  Location     Type
  1324 ;;		None
  1325 ;; Return value:  Size  Location     Type
  1326 ;;                  1    wreg      void 
  1327 ;; Registers used:
  1328 ;;		wreg, status,2, status,0, tblptrl, tblptrh, tblptru, prodl, prodh, cstack
  1329 ;; Tracked objects:
  1330 ;;		On entry : 0/0
  1331 ;;		On exit  : 0/0
  1332 ;;		Unchanged: 0/0
  1333 ;; Data sizes:     COMRAM   BANK0   BANK1   BANK2   BANK3   BANK4   BANK5   BANK6   BANK7   BANK8   BANK9  BANK10  BANK1
      +1  BANK12  BANK13  BANK14  BANK15
  1334 ;;      Params:         0       0       0       0       0       0       0       0       0       0       0       0       
      +0       0       0       0       0
  1335 ;;      Locals:         0       0       0       0       0       0       0       0       0       0       0       0       
      +0       0       0       0       0
  1336 ;;      Temps:          0       0       0       0       0       0       0       0       0       0       0       0       
      +0       0       0       0       0
  1337 ;;      Totals:         0       0       0       0       0       0       0       0       0       0       0       0       
      +0       0       0       0       0
  1338 ;;Total ram usage:        0 bytes
  1339 ;; Hardware stack levels used: 1
  1340 ;; Hardware stack levels required when called: 7
  1341 ;; This function calls:
  1342 ;;		_SPI1_Open
  1343 ;; This function is called by:
  1344 ;;		_InitRadio
  1345 ;; This function uses a non-reentrant model
  1346 ;;
  1347                           
  1348                           	psect	text9
  1349  001EC0                     __ptext9:
  1350                           	callstack 0
  1351  001EC0                     _nrf24_rf_init:
  1352                           	callstack 22
  1353  001EC0                     
  1354                           ;../lib/nrf24_lib.c: 71:     SPI1_Open(SPI1_DEFAULT);
  1355  001EC0  0E00               	movlw	0
  1356  001EC2  ECF5  F00A         	call	_SPI1_Open
  1357  001EC6  9294               	bcf	148,1,c	;volatile
  1358  001EC8  9494               	bcf	148,2,c	;volatile
  1359  001ECA  828B               	bsf	139,1,c	;volatile
  1360  001ECC  948B               	bcf	139,2,c	;volatile
  1361  001ECE  0012               	return		;funcret
  1362  001ED0                     __end_of_nrf24_rf_init:
  1363                           	callstack 0
  1364                           
  1365 ;; *************** function _SPI1_Open *****************
  1366 ;; Defined at:
  1367 ;;		line 72 in file "mcc_generated_files/spi1.c"
  1368 ;; Parameters:    Size  Location     Type
  1369 ;;  spi1UniqueCo    1    wreg     enum E355
  1370 ;; Auto vars:     Size  Location     Type
  1371 ;;  spi1UniqueCo    1   33[COMRAM] enum E355
  1372 ;; Return value:  Size  Location     Type
  1373 ;;                  1    wreg      _Bool 
  1374 ;; Registers used:
  1375 ;;		wreg, status,2, status,0, tblptrl, tblptrh, tblptru, prodl, prodh
  1376 ;; Tracked objects:
  1377 ;;		On entry : 0/0
  1378 ;;		On exit  : 0/0
  1379 ;;		Unchanged: 0/0
  1380 ;; Data sizes:     COMRAM   BANK0   BANK1   BANK2   BANK3   BANK4   BANK5   BANK6   BANK7   BANK8   BANK9  BANK10  BANK1
      +1  BANK12  BANK13  BANK14  BANK15
  1381 ;;      Params:         0       0       0       0       0       0       0       0       0       0       0       0       
      +0       0       0       0       0
  1382 ;;      Locals:         1       0       0       0       0       0       0       0       0       0       0       0       
      +0       0       0       0       0
  1383 ;;      Temps:          1       0       0       0       0       0       0       0       0       0       0       0       
      +0       0       0       0       0
  1384 ;;      Totals:         2       0       0       0       0       0       0       0       0       0       0       0       
      +0       0       0       0       0
  1385 ;;Total ram usage:        2 bytes
  1386 ;; Hardware stack levels used: 1
  1387 ;; Hardware stack levels required when called: 6
  1388 ;; This function calls:
  1389 ;;		Nothing
  1390 ;; This function is called by:
  1391 ;;		_nrf24_rf_init
  1392 ;; This function uses a non-reentrant model
  1393 ;;
  1394                           
  1395                           	psect	text10
  1396  0015EA                     __ptext10:
  1397                           	callstack 0
  1398  0015EA                     _SPI1_Open:
  1399                           	callstack 22
  1400                           
  1401                           ;incstack = 0
  1402                           ;SPI1_Open@spi1UniqueConfiguration stored from wreg
  1403  0015EA  6E22               	movwf	SPI1_Open@spi1UniqueConfiguration^0,c
  1404  0015EC                     
  1405                           ;mcc_generated_files/spi1.c: 72: _Bool SPI1_Open(spi1_modes_t spi1UniqueConfiguration);m
      +                          cc_generated_files/spi1.c: 73: {;mcc_generated_files/spi1.c: 74:     if(!SSP1CON1bits.SS
      +                          PEN)
  1406  0015EC  BAC6               	btfsc	198,5,c	;volatile
  1407  0015EE  EFFB  F00A         	goto	u671
  1408  0015F2  EFFD  F00A         	goto	u670
  1409  0015F6                     u671:
  1410  0015F6  EF4C  F00B         	goto	l55
  1411  0015FA                     u670:
  1412  0015FA                     
  1413                           ;mcc_generated_files/spi1.c: 75:     {;mcc_generated_files/spi1.c: 76:         SSP1STAT 
      +                          = spi1_configuration[spi1UniqueConfiguration].stat;
  1414  0015FA  5022               	movf	SPI1_Open@spi1UniqueConfiguration^0,w,c
  1415  0015FC  0D04               	mullw	4
  1416  0015FE  0E01               	movlw	1
  1417  001600  26F3               	addwf	243,f,c
  1418  001602  0E00               	movlw	0
  1419  001604  22F4               	addwfc	244,f,c
  1420  001606  0E01               	movlw	low _spi1_configuration
  1421  001608  24F3               	addwf	243,w,c
  1422  00160A  6EF6               	movwf	tblptrl,c
  1423  00160C  0E10               	movlw	high _spi1_configuration
  1424  00160E  20F4               	addwfc	244,w,c
  1425  001610  6EF7               	movwf	tblptrh,c
  1426  001612                     	if	1	;There are 3 active tblptr bytes
  1427  001612  6AF8               	clrf	tblptru,c
  1428  001614  0E00               	movlw	low (__mediumconst shr (0+16))
  1429  001616  22F8               	addwfc	tblptru,f,c
  1430  001618                     	endif
  1431  001618  0008               	tblrd		*
  1432  00161A  CFF5 FFC7          	movff	tablat,4039	;volatile
  1433                           
  1434                           ;mcc_generated_files/spi1.c: 77:         SSP1CON1 = spi1_configuration[spi1UniqueConfigu
      +                          ration].con1;
  1435  00161E  5022               	movf	SPI1_Open@spi1UniqueConfiguration^0,w,c
  1436  001620  0D04               	mullw	4
  1437  001622  0E01               	movlw	low _spi1_configuration
  1438  001624  24F3               	addwf	243,w,c
  1439  001626  6EF6               	movwf	tblptrl,c
  1440  001628  0E10               	movlw	high _spi1_configuration
  1441  00162A  20F4               	addwfc	244,w,c
  1442  00162C  6EF7               	movwf	tblptrh,c
  1443  00162E                     	if	1	;There are 3 active tblptr bytes
  1444  00162E  6AF8               	clrf	tblptru,c
  1445  001630  0E00               	movlw	low (__mediumconst shr (0+16))
  1446  001632  22F8               	addwfc	tblptru,f,c
  1447  001634                     	endif
  1448  001634  0008               	tblrd		*
  1449  001636  CFF5 FFC6          	movff	tablat,4038	;volatile
  1450  00163A                     
  1451                           ;mcc_generated_files/spi1.c: 78:         SSP1CON2 = 0x00;
  1452  00163A  0E00               	movlw	0
  1453  00163C  6EC5               	movwf	197,c	;volatile
  1454  00163E                     
  1455                           ;mcc_generated_files/spi1.c: 79:         SSP1ADD = spi1_configuration[spi1UniqueConfigur
      +                          ation].add;
  1456  00163E  5022               	movf	SPI1_Open@spi1UniqueConfiguration^0,w,c
  1457  001640  0D04               	mullw	4
  1458  001642  0E02               	movlw	2
  1459  001644  26F3               	addwf	243,f,c
  1460  001646  0E00               	movlw	0
  1461  001648  22F4               	addwfc	244,f,c
  1462  00164A  0E01               	movlw	low _spi1_configuration
  1463  00164C  24F3               	addwf	243,w,c
  1464  00164E  6EF6               	movwf	tblptrl,c
  1465  001650  0E10               	movlw	high _spi1_configuration
  1466  001652  20F4               	addwfc	244,w,c
  1467  001654  6EF7               	movwf	tblptrh,c
  1468  001656                     	if	1	;There are 3 active tblptr bytes
  1469  001656  6AF8               	clrf	tblptru,c
  1470  001658  0E00               	movlw	low (__mediumconst shr (0+16))
  1471  00165A  22F8               	addwfc	tblptru,f,c
  1472  00165C                     	endif
  1473  00165C  0008               	tblrd		*
  1474  00165E  CFF5 FFC8          	movff	tablat,4040	;volatile
  1475  001662                     
  1476                           ;mcc_generated_files/spi1.c: 80:         TRISCbits.TRISC3 = spi1_configuration[spi1Uniqu
      +                          eConfiguration].operation;
  1477  001662  5022               	movf	SPI1_Open@spi1UniqueConfiguration^0,w,c
  1478  001664  0D04               	mullw	4
  1479  001666  0E03               	movlw	3
  1480  001668  26F3               	addwf	243,f,c
  1481  00166A  0E00               	movlw	0
  1482  00166C  22F4               	addwfc	244,f,c
  1483  00166E  0E01               	movlw	low _spi1_configuration
  1484  001670  24F3               	addwf	243,w,c
  1485  001672  6EF6               	movwf	tblptrl,c
  1486  001674  0E10               	movlw	high _spi1_configuration
  1487  001676  20F4               	addwfc	244,w,c
  1488  001678  6EF7               	movwf	tblptrh,c
  1489  00167A                     	if	1	;There are 3 active tblptr bytes
  1490  00167A  6AF8               	clrf	tblptru,c
  1491  00167C  0E00               	movlw	low (__mediumconst shr (0+16))
  1492  00167E  22F8               	addwfc	tblptru,f,c
  1493  001680                     	endif
  1494  001680  0008               	tblrd		*
  1495  001682  CFF5 F021          	movff	tablat,??_SPI1_Open
  1496  001686  4621               	rlncf	??_SPI1_Open^0,f,c
  1497  001688  4621               	rlncf	??_SPI1_Open^0,f,c
  1498  00168A  4621               	rlncf	??_SPI1_Open^0,f,c
  1499  00168C  5094               	movf	148,w,c	;volatile
  1500  00168E  1821               	xorwf	??_SPI1_Open^0,w,c
  1501  001690  0BF7               	andlw	-9
  1502  001692  1821               	xorwf	??_SPI1_Open^0,w,c
  1503  001694  6E94               	movwf	148,c	;volatile
  1504  001696                     
  1505                           ;mcc_generated_files/spi1.c: 81:         SSP1CON1bits.SSPEN = 1;
  1506  001696  8AC6               	bsf	198,5,c	;volatile
  1507  001698                     l55:
  1508  001698  0012               	return		;funcret
  1509  00169A                     __end_of_SPI1_Open:
  1510                           	callstack 0
  1511                           
  1512 ;; *************** function _HandlePacketLoop *****************
  1513 ;; Defined at:
  1514 ;;		line 90 in file "../lib/handler_lib.c"
  1515 ;; Parameters:    Size  Location     Type
  1516 ;;		None
  1517 ;; Auto vars:     Size  Location     Type
  1518 ;;  sz              1   64[BANK0 ] unsigned char 
  1519 ;;  i               1   66[BANK0 ] unsigned char 
  1520 ;;  status          1   65[BANK0 ] unsigned char 
  1521 ;; Return value:  Size  Location     Type
  1522 ;;                  1    wreg      void 
  1523 ;; Registers used:
  1524 ;;		wreg, fsr1l, fsr1h, fsr2l, fsr2h, status,2, status,0, prodl, prodh, cstack
  1525 ;; Tracked objects:
  1526 ;;		On entry : 0/0
  1527 ;;		On exit  : 0/0
  1528 ;;		Unchanged: 0/0
  1529 ;; Data sizes:     COMRAM   BANK0   BANK1   BANK2   BANK3   BANK4   BANK5   BANK6   BANK7   BANK8   BANK9  BANK10  BANK1
      +1  BANK12  BANK13  BANK14  BANK15
  1530 ;;      Params:         0       0       0       0       0       0       0       0       0       0       0       0       
      +0       0       0       0       0
  1531 ;;      Locals:         0       3       0       0       0       0       0       0       0       0       0       0       
      +0       0       0       0       0
  1532 ;;      Temps:          0       0       0       0       0       0       0       0       0       0       0       0       
      +0       0       0       0       0
  1533 ;;      Totals:         0       3       0       0       0       0       0       0       0       0       0       0       
      +0       0       0       0       0
  1534 ;;Total ram usage:        3 bytes
  1535 ;; Hardware stack levels used: 1
  1536 ;; Hardware stack levels required when called: 11
  1537 ;; This function calls:
  1538 ;;		_ProcessAckPayload
  1539 ;;		_VerifyBoardAddress
  1540 ;;		_nrf24_flush_tx_rx
  1541 ;;		_nrf24_read_dynamic_payload_length
  1542 ;;		_nrf24_read_register
  1543 ;;		_nrf24_read_rf_data
  1544 ;;		_nrf24_send_rf_data
  1545 ;;		_nrf24_write_register
  1546 ;; This function is called by:
  1547 ;;		_main
  1548 ;; This function uses a non-reentrant model
  1549 ;;
  1550                           
  1551                           	psect	text11
  1552  001006                     __ptext11:
  1553                           	callstack 0
  1554  001006                     _HandlePacketLoop:
  1555                           	callstack 19
  1556  001006                     
  1557                           ;../lib/handler_lib.c: 91:     uint8_t i;;../lib/handler_lib.c: 94:     for (i = 0; i < 
      +                          8; i++) {
  1558  001006  0E00               	movlw	0
  1559  001008  0100               	movlb	0	; () banked
  1560  00100A  6FF5               	movwf	HandlePacketLoop@i& (0+255),b
  1561  00100C                     l2665:
  1562                           
  1563                           ; BSR set to: 0
  1564                           ;../lib/handler_lib.c: 95:         if (!packetsTX[i].free) {
  1565  00100C  51F5               	movf	HandlePacketLoop@i& (0+255),w,b
  1566  00100E  0D26               	mullw	38
  1567  001010  0E16               	movlw	low (_packetsTX+32)
  1568  001012  24F3               	addwf	243,w,c
  1569  001014  6ED9               	movwf	fsr2l,c
  1570  001016  0E01               	movlw	high (_packetsTX+32)
  1571  001018  20F4               	addwfc	prodh,w,c
  1572  00101A  6EDA               	movwf	fsr2h,c
  1573  00101C  50DF               	movf	indf2,w,c
  1574  00101E  A4D8               	btfss	status,2,c
  1575  001020  EF14  F008         	goto	u1011
  1576  001024  EF16  F008         	goto	u1010
  1577  001028                     u1011:
  1578  001028  EF18  F008         	goto	l2669
  1579  00102C                     u1010:
  1580  00102C  EF21  F008         	goto	l2673
  1581  001030                     l2669:
  1582                           
  1583                           ; BSR set to: 0
  1584                           ;../lib/handler_lib.c: 98:     }
  1585  001030  2BF5               	incf	HandlePacketLoop@i& (0+255),f,b
  1586  001032                     
  1587                           ; BSR set to: 0
  1588  001032  0E07               	movlw	7
  1589  001034  65F5               	cpfsgt	HandlePacketLoop@i& (0+255),b
  1590  001036  EF1F  F008         	goto	u1021
  1591  00103A  EF21  F008         	goto	u1020
  1592  00103E                     u1021:
  1593  00103E  EF06  F008         	goto	l2665
  1594  001042                     u1020:
  1595  001042                     l2673:
  1596                           
  1597                           ; BSR set to: 0
  1598                           ;../lib/handler_lib.c: 99:     if (i == 8) {
  1599  001042  0E08               	movlw	8
  1600  001044  19F5               	xorwf	HandlePacketLoop@i& (0+255),w,b
  1601  001046  A4D8               	btfss	status,2,c
  1602  001048  EF28  F008         	goto	u1031
  1603  00104C  EF2A  F008         	goto	u1030
  1604  001050                     u1031:
  1605  001050  EF2C  F008         	goto	l2677
  1606  001054                     u1030:
  1607  001054  EFA1  F008         	goto	l427
  1608  001058                     l2677:
  1609                           
  1610                           ; BSR set to: 0
  1611                           ;../lib/handler_lib.c: 103:     nrf24_send_rf_data(packetsTX[i].packet, packetsTX[i].siz
      +                          e);
  1612  001058  51F5               	movf	HandlePacketLoop@i& (0+255),w,b
  1613  00105A  0D26               	mullw	38
  1614  00105C  0EF6               	movlw	low _packetsTX
  1615  00105E  24F3               	addwf	243,w,c
  1616  001060  6E27               	movwf	nrf24_send_rf_data@buffer^0,c
  1617  001062  0E00               	movlw	high _packetsTX
  1618  001064  20F4               	addwfc	prodh,w,c
  1619  001066  6E28               	movwf	(nrf24_send_rf_data@buffer+1)^0,c
  1620  001068  51F5               	movf	HandlePacketLoop@i& (0+255),w,b
  1621  00106A  0D26               	mullw	38
  1622  00106C  0E17               	movlw	low (_packetsTX+33)
  1623  00106E  24F3               	addwf	243,w,c
  1624  001070  6ED9               	movwf	fsr2l,c
  1625  001072  0E01               	movlw	high (_packetsTX+33)
  1626  001074  20F4               	addwfc	prodh,w,c
  1627  001076  6EDA               	movwf	fsr2h,c
  1628  001078  50DF               	movf	indf2,w,c
  1629  00107A  6E29               	movwf	nrf24_send_rf_data@sz^0,c
  1630  00107C  EC04  F00F         	call	_nrf24_send_rf_data	;wreg free
  1631  001080                     l2681:
  1632                           
  1633                           ;../lib/handler_lib.c: 108:         status = nrf24_read_register(0x07);
  1634  001080  0E07               	movlw	7
  1635  001082  EC32  F00F         	call	_nrf24_read_register
  1636  001086  0100               	movlb	0	; () banked
  1637  001088  6FF4               	movwf	HandlePacketLoop@status& (0+255),b
  1638  00108A                     
  1639                           ; BSR set to: 0
  1640                           ;../lib/handler_lib.c: 109:         if ((status & 0x20) || (status & 0x10)) {
  1641  00108A  BBF4               	btfsc	HandlePacketLoop@status& (0+255),5,b
  1642  00108C  EF4A  F008         	goto	u1041
  1643  001090  EF4C  F008         	goto	u1040
  1644  001094                     u1041:
  1645  001094  EF53  F008         	goto	l432
  1646  001098                     u1040:
  1647  001098                     
  1648                           ; BSR set to: 0
  1649  001098  A9F4               	btfss	HandlePacketLoop@status& (0+255),4,b
  1650  00109A  EF51  F008         	goto	u1051
  1651  00109E  EF53  F008         	goto	u1050
  1652  0010A2                     u1051:
  1653  0010A2  EF56  F008         	goto	l429
  1654  0010A6                     u1050:
  1655  0010A6                     l432:
  1656                           
  1657                           ; BSR set to: 0
  1658  0010A6  9289               	bcf	137,1,c	;volatile
  1659  0010A8  EF5A  F008         	goto	l2687
  1660  0010AC                     l429:
  1661                           
  1662                           ; BSR set to: 0
  1663                           ;../lib/handler_lib.c: 113:         _delay((unsigned long)((10)*(1000000/4000000.0)));
  1664  0010AC  D000               	nop2		;2 cycle nop
  1665  0010AE  8289               	bsf	137,1,c	;volatile
  1666  0010B0  EF40  F008         	goto	l2681
  1667  0010B4                     l2687:
  1668                           
  1669                           ; BSR set to: 0
  1670                           ;../lib/handler_lib.c: 117:     nrf24_write_register(0x07, 0x70);
  1671  0010B4  0E70               	movlw	112
  1672  0010B6  6E22               	movwf	nrf24_write_register@value^0,c
  1673  0010B8  0E07               	movlw	7
  1674  0010BA  EC2E  F00C         	call	_nrf24_write_register
  1675  0010BE                     
  1676                           ;../lib/handler_lib.c: 120:     if (status & 0x10) {
  1677  0010BE  0100               	movlb	0	; () banked
  1678  0010C0  A9F4               	btfss	HandlePacketLoop@status& (0+255),4,b
  1679  0010C2  EF65  F008         	goto	u1061
  1680  0010C6  EF67  F008         	goto	u1060
  1681  0010CA                     u1061:
  1682  0010CA  EF6B  F008         	goto	l2695
  1683  0010CE                     u1060:
  1684  0010CE                     
  1685                           ; BSR set to: 0
  1686                           ;../lib/handler_lib.c: 121:         nrf24_flush_tx_rx();
  1687  0010CE  ECD7  F00D         	call	_nrf24_flush_tx_rx	;wreg free
  1688  0010D2  EFA1  F008         	goto	l427
  1689  0010D6                     l2695:
  1690                           
  1691                           ; BSR set to: 0
  1692                           ;../lib/handler_lib.c: 128:     packetsTX[i].free = 1;
  1693  0010D6  51F5               	movf	HandlePacketLoop@i& (0+255),w,b
  1694  0010D8  0D26               	mullw	38
  1695  0010DA  0E16               	movlw	low (_packetsTX+32)
  1696  0010DC  24F3               	addwf	243,w,c
  1697  0010DE  6ED9               	movwf	fsr2l,c
  1698  0010E0  0E01               	movlw	high (_packetsTX+32)
  1699  0010E2  20F4               	addwfc	prodh,w,c
  1700  0010E4  6EDA               	movwf	fsr2h,c
  1701  0010E6  0E01               	movlw	1
  1702  0010E8  6EDF               	movwf	indf2,c
  1703  0010EA                     
  1704                           ; BSR set to: 0
  1705                           ;../lib/handler_lib.c: 131:     if (status & 0x40) {
  1706  0010EA  ADF4               	btfss	HandlePacketLoop@status& (0+255),6,b
  1707  0010EC  EF7A  F008         	goto	u1071
  1708  0010F0  EF7C  F008         	goto	u1070
  1709  0010F4                     u1071:
  1710  0010F4  EFA1  F008         	goto	l427
  1711  0010F8                     u1070:
  1712  0010F8                     
  1713                           ; BSR set to: 0
  1714                           ;../lib/handler_lib.c: 132:         uint8_t sz = nrf24_read_dynamic_payload_length();
  1715  0010F8  EC14  F00F         	call	_nrf24_read_dynamic_payload_length	;wreg free
  1716  0010FC  0100               	movlb	0	; () banked
  1717  0010FE  6FF3               	movwf	HandlePacketLoop@sz& (0+255),b
  1718  001100                     
  1719                           ; BSR set to: 0
  1720                           ;../lib/handler_lib.c: 133:         nrf24_read_rf_data(bufferRX, sz);
  1721  001100  0E62               	movlw	low _bufferRX
  1722  001102  6E27               	movwf	nrf24_read_rf_data@buffer^0,c
  1723  001104  0E00               	movlw	high _bufferRX
  1724  001106  6E28               	movwf	(nrf24_read_rf_data@buffer+1)^0,c
  1725  001108  C0F3  F029         	movff	HandlePacketLoop@sz,nrf24_read_rf_data@sz
  1726  00110C  ECF3  F00E         	call	_nrf24_read_rf_data	;wreg free
  1727  001110                     
  1728                           ;../lib/handler_lib.c: 134:         if (!VerifyBoardAddress(bufferRX)) {
  1729  001110  0E62               	movlw	low _bufferRX
  1730  001112  6E21               	movwf	VerifyBoardAddress@bufferRX^0,c
  1731  001114  0E00               	movlw	high _bufferRX
  1732  001116  6E22               	movwf	(VerifyBoardAddress@bufferRX+1)^0,c
  1733  001118  ECD8  F00C         	call	_VerifyBoardAddress	;wreg free
  1734  00111C  0900               	iorlw	0
  1735  00111E  A4D8               	btfss	status,2,c
  1736  001120  EF94  F008         	goto	u1081
  1737  001124  EF96  F008         	goto	u1080
  1738  001128                     u1081:
  1739  001128  EF98  F008         	goto	l2707
  1740  00112C                     u1080:
  1741  00112C  EFA1  F008         	goto	l427
  1742  001130                     l2707:
  1743                           
  1744                           ;../lib/handler_lib.c: 137:         ProcessAckPayload(bufferRX, sz);
  1745  001130  0E62               	movlw	low _bufferRX
  1746  001132  0100               	movlb	0	; () banked
  1747  001134  6FCC               	movwf	ProcessAckPayload@buffer& (0+255),b
  1748  001136  0E00               	movlw	high _bufferRX
  1749  001138  6FCD               	movwf	(ProcessAckPayload@buffer+1)& (0+255),b
  1750  00113A  C0F3  F0CE         	movff	HandlePacketLoop@sz,ProcessAckPayload@sz
  1751  00113E  ECA2  F008         	call	_ProcessAckPayload	;wreg free
  1752  001142                     l427:
  1753  001142  0012               	return		;funcret
  1754  001144                     __end_of_HandlePacketLoop:
  1755                           	callstack 0
  1756                           
  1757 ;; *************** function _nrf24_send_rf_data *****************
  1758 ;; Defined at:
  1759 ;;		line 79 in file "../lib/nrf24_lib.c"
  1760 ;; Parameters:    Size  Location     Type
  1761 ;;  buffer          2   38[COMRAM] PTR unsigned char 
  1762 ;;		 -> packetsTX(304), 
  1763 ;;  sz              1   40[COMRAM] unsigned char 
  1764 ;; Auto vars:     Size  Location     Type
  1765 ;;		None
  1766 ;; Return value:  Size  Location     Type
  1767 ;;                  1    wreg      void 
  1768 ;; Registers used:
  1769 ;;		wreg, fsr2l, fsr2h, status,2, status,0, cstack
  1770 ;; Tracked objects:
  1771 ;;		On entry : 0/0
  1772 ;;		On exit  : 0/0
  1773 ;;		Unchanged: 0/0
  1774 ;; Data sizes:     COMRAM   BANK0   BANK1   BANK2   BANK3   BANK4   BANK5   BANK6   BANK7   BANK8   BANK9  BANK10  BANK1
      +1  BANK12  BANK13  BANK14  BANK15
  1775 ;;      Params:         3       0       0       0       0       0       0       0       0       0       0       0       
      +0       0       0       0       0
  1776 ;;      Locals:         0       0       0       0       0       0       0       0       0       0       0       0       
      +0       0       0       0       0
  1777 ;;      Temps:          0       0       0       0       0       0       0       0       0       0       0       0       
      +0       0       0       0       0
  1778 ;;      Totals:         3       0       0       0       0       0       0       0       0       0       0       0       
      +0       0       0       0       0
  1779 ;;Total ram usage:        3 bytes
  1780 ;; Hardware stack levels used: 1
  1781 ;; Hardware stack levels required when called: 8
  1782 ;; This function calls:
  1783 ;;		_nrf24_write_buff
  1784 ;; This function is called by:
  1785 ;;		_HandlePacketLoop
  1786 ;; This function uses a non-reentrant model
  1787 ;;
  1788                           
  1789                           	psect	text12
  1790  001E08                     __ptext12:
  1791                           	callstack 0
  1792  001E08                     _nrf24_send_rf_data:
  1793                           	callstack 21
  1794  001E08                     
  1795                           ;../lib/nrf24_lib.c: 80:     nrf24_write_buff(0xA0, buffer, sz);
  1796  001E08  C027  F022         	movff	nrf24_send_rf_data@buffer,nrf24_write_buff@buffer
  1797  001E0C  C028  F023         	movff	nrf24_send_rf_data@buffer+1,nrf24_write_buff@buffer+1
  1798  001E10  C029  F024         	movff	nrf24_send_rf_data@sz,nrf24_write_buff@bytes
  1799  001E14  0EA0               	movlw	160
  1800  001E16  EC48  F00E         	call	_nrf24_write_buff
  1801  001E1A  848B               	bsf	139,2,c	;volatile
  1802  001E1C                     
  1803                           ;../lib/nrf24_lib.c: 82:     _delay((unsigned long)((1)*(1000000/4000.0)));
  1804  001E1C  0E53               	movlw	83
  1805  001E1E                     u1097:
  1806  001E1E  2EE8               	decfsz	wreg,f,c
  1807  001E20  D7FE               	bra	u1097
  1808  001E22  F000               	nop	
  1809  001E24  948B               	bcf	139,2,c	;volatile
  1810  001E26  0012               	return		;funcret
  1811  001E28                     __end_of_nrf24_send_rf_data:
  1812                           	callstack 0
  1813                           
  1814 ;; *************** function _nrf24_read_rf_data *****************
  1815 ;; Defined at:
  1816 ;;		line 93 in file "../lib/nrf24_lib.c"
  1817 ;; Parameters:    Size  Location     Type
  1818 ;;  buffer          2   38[COMRAM] PTR unsigned char 
  1819 ;;		 -> bufferRX(32), 
  1820 ;;  sz              1   40[COMRAM] unsigned char 
  1821 ;; Auto vars:     Size  Location     Type
  1822 ;;		None
  1823 ;; Return value:  Size  Location     Type
  1824 ;;                  1    wreg      void 
  1825 ;; Registers used:
  1826 ;;		wreg, fsr2l, fsr2h, status,2, status,0, cstack
  1827 ;; Tracked objects:
  1828 ;;		On entry : 0/0
  1829 ;;		On exit  : 0/0
  1830 ;;		Unchanged: 0/0
  1831 ;; Data sizes:     COMRAM   BANK0   BANK1   BANK2   BANK3   BANK4   BANK5   BANK6   BANK7   BANK8   BANK9  BANK10  BANK1
      +1  BANK12  BANK13  BANK14  BANK15
  1832 ;;      Params:         3       0       0       0       0       0       0       0       0       0       0       0       
      +0       0       0       0       0
  1833 ;;      Locals:         0       0       0       0       0       0       0       0       0       0       0       0       
      +0       0       0       0       0
  1834 ;;      Temps:          0       0       0       0       0       0       0       0       0       0       0       0       
      +0       0       0       0       0
  1835 ;;      Totals:         3       0       0       0       0       0       0       0       0       0       0       0       
      +0       0       0       0       0
  1836 ;;Total ram usage:        3 bytes
  1837 ;; Hardware stack levels used: 1
  1838 ;; Hardware stack levels required when called: 9
  1839 ;; This function calls:
  1840 ;;		_nrf24_flush_tx_rx
  1841 ;;		_nrf24_read_buff
  1842 ;;		_nrf24_write_register
  1843 ;; This function is called by:
  1844 ;;		_HandlePacketLoop
  1845 ;; This function uses a non-reentrant model
  1846 ;;
  1847                           
  1848                           	psect	text13
  1849  001DE6                     __ptext13:
  1850                           	callstack 0
  1851  001DE6                     _nrf24_read_rf_data:
  1852                           	callstack 20
  1853  001DE6                     
  1854                           ;../lib/nrf24_lib.c: 94:     nrf24_read_buff(0x61, buffer, sz);
  1855  001DE6  C027  F022         	movff	nrf24_read_rf_data@buffer,nrf24_read_buff@buffer
  1856  001DEA  C028  F023         	movff	nrf24_read_rf_data@buffer+1,nrf24_read_buff@buffer+1
  1857  001DEE  C029  F024         	movff	nrf24_read_rf_data@sz,nrf24_read_buff@bytes
  1858  001DF2  0E61               	movlw	97
  1859  001DF4  ECFE  F00D         	call	_nrf24_read_buff
  1860  001DF8                     
  1861                           ;../lib/nrf24_lib.c: 95:     nrf24_write_register(0x07, 0x70);
  1862  001DF8  0E70               	movlw	112
  1863  001DFA  6E22               	movwf	nrf24_write_register@value^0,c
  1864  001DFC  0E07               	movlw	7
  1865  001DFE  EC2E  F00C         	call	_nrf24_write_register
  1866  001E02                     
  1867                           ;../lib/nrf24_lib.c: 96:     nrf24_flush_tx_rx();
  1868  001E02  ECD7  F00D         	call	_nrf24_flush_tx_rx	;wreg free
  1869  001E06  0012               	return		;funcret
  1870  001E08                     __end_of_nrf24_read_rf_data:
  1871                           	callstack 0
  1872                           
  1873 ;; *************** function _nrf24_read_buff *****************
  1874 ;; Defined at:
  1875 ;;		line 58 in file "../lib/nrf24_lib.c"
  1876 ;; Parameters:    Size  Location     Type
  1877 ;;  mnemonic_add    1    wreg     unsigned char 
  1878 ;;  buffer          2   33[COMRAM] PTR unsigned char 
  1879 ;;		 -> bufferRX(32), 
  1880 ;;  bytes           1   35[COMRAM] unsigned char 
  1881 ;; Auto vars:     Size  Location     Type
  1882 ;;  mnemonic_add    1   36[COMRAM] unsigned char 
  1883 ;;  i               1   37[COMRAM] unsigned char 
  1884 ;; Return value:  Size  Location     Type
  1885 ;;                  1    wreg      void 
  1886 ;; Registers used:
  1887 ;;		wreg, fsr2l, fsr2h, status,2, status,0, cstack
  1888 ;; Tracked objects:
  1889 ;;		On entry : 0/0
  1890 ;;		On exit  : 0/0
  1891 ;;		Unchanged: 0/0
  1892 ;; Data sizes:     COMRAM   BANK0   BANK1   BANK2   BANK3   BANK4   BANK5   BANK6   BANK7   BANK8   BANK9  BANK10  BANK1
      +1  BANK12  BANK13  BANK14  BANK15
  1893 ;;      Params:         3       0       0       0       0       0       0       0       0       0       0       0       
      +0       0       0       0       0
  1894 ;;      Locals:         2       0       0       0       0       0       0       0       0       0       0       0       
      +0       0       0       0       0
  1895 ;;      Temps:          0       0       0       0       0       0       0       0       0       0       0       0       
      +0       0       0       0       0
  1896 ;;      Totals:         5       0       0       0       0       0       0       0       0       0       0       0       
      +0       0       0       0       0
  1897 ;;Total ram usage:        5 bytes
  1898 ;; Hardware stack levels used: 1
  1899 ;; Hardware stack levels required when called: 7
  1900 ;; This function calls:
  1901 ;;		_SPI1_ExchangeByte
  1902 ;; This function is called by:
  1903 ;;		_nrf24_read_rf_data
  1904 ;; This function uses a non-reentrant model
  1905 ;;
  1906                           
  1907                           	psect	text14
  1908  001BFC                     __ptext14:
  1909                           	callstack 0
  1910  001BFC                     _nrf24_read_buff:
  1911                           	callstack 21
  1912                           
  1913                           ;incstack = 0
  1914                           ;nrf24_read_buff@mnemonic_addr stored from wreg
  1915  001BFC  6E25               	movwf	nrf24_read_buff@mnemonic_addr^0,c
  1916  001BFE  928B               	bcf	139,1,c	;volatile
  1917  001C00                     
  1918                           ;../lib/nrf24_lib.c: 61:     SPI1_ExchangeByte(0x00 | mnemonic_addr);
  1919  001C00  5025               	movf	nrf24_read_buff@mnemonic_addr^0,w,c
  1920  001C02  EC3F  F00F         	call	_SPI1_ExchangeByte
  1921  001C06                     
  1922                           ;../lib/nrf24_lib.c: 62:     for (i = 0; i < bytes; i++) {
  1923  001C06  0E00               	movlw	0
  1924  001C08  6E26               	movwf	nrf24_read_buff@i^0,c
  1925  001C0A  EF12  F00E         	goto	l2077
  1926  001C0E                     l2071:
  1927                           
  1928                           ;../lib/nrf24_lib.c: 63:         *buffer = SPI1_ExchangeByte(0xFF);
  1929  001C0E  0EFF               	movlw	255
  1930  001C10  EC3F  F00F         	call	_SPI1_ExchangeByte
  1931  001C14  C022  FFD9         	movff	nrf24_read_buff@buffer,fsr2l
  1932  001C18  C023  FFDA         	movff	nrf24_read_buff@buffer+1,fsr2h
  1933  001C1C  6EDF               	movwf	indf2,c
  1934  001C1E                     
  1935                           ;../lib/nrf24_lib.c: 64:         buffer++;
  1936  001C1E  4A22               	infsnz	nrf24_read_buff@buffer^0,f,c
  1937  001C20  2A23               	incf	(nrf24_read_buff@buffer+1)^0,f,c
  1938  001C22                     
  1939                           ;../lib/nrf24_lib.c: 65:     }
  1940  001C22  2A26               	incf	nrf24_read_buff@i^0,f,c
  1941  001C24                     l2077:
  1942  001C24  5024               	movf	nrf24_read_buff@bytes^0,w,c
  1943  001C26  5C26               	subwf	nrf24_read_buff@i^0,w,c
  1944  001C28  A0D8               	btfss	status,0,c
  1945  001C2A  EF19  F00E         	goto	u691
  1946  001C2E  EF1B  F00E         	goto	u690
  1947  001C32                     u691:
  1948  001C32  EF07  F00E         	goto	l2071
  1949  001C36                     u690:
  1950  001C36                     
  1951                           ;../lib/nrf24_lib.c: 66:     *buffer = (uint8_t) ((void*)0);
  1952  001C36  C022  FFD9         	movff	nrf24_read_buff@buffer,fsr2l
  1953  001C3A  C023  FFDA         	movff	nrf24_read_buff@buffer+1,fsr2h
  1954  001C3E  0E00               	movlw	0
  1955  001C40  6EDF               	movwf	indf2,c
  1956  001C42  828B               	bsf	139,1,c	;volatile
  1957  001C44  0012               	return		;funcret
  1958  001C46                     __end_of_nrf24_read_buff:
  1959                           	callstack 0
  1960                           
  1961 ;; *************** function _nrf24_flush_tx_rx *****************
  1962 ;; Defined at:
  1963 ;;		line 99 in file "../lib/nrf24_lib.c"
  1964 ;; Parameters:    Size  Location     Type
  1965 ;;		None
  1966 ;; Auto vars:     Size  Location     Type
  1967 ;;		None
  1968 ;; Return value:  Size  Location     Type
  1969 ;;                  1    wreg      void 
  1970 ;; Registers used:
  1971 ;;		wreg, status,2, status,0, cstack
  1972 ;; Tracked objects:
  1973 ;;		On entry : 0/0
  1974 ;;		On exit  : 0/0
  1975 ;;		Unchanged: 0/0
  1976 ;; Data sizes:     COMRAM   BANK0   BANK1   BANK2   BANK3   BANK4   BANK5   BANK6   BANK7   BANK8   BANK9  BANK10  BANK1
      +1  BANK12  BANK13  BANK14  BANK15
  1977 ;;      Params:         0       0       0       0       0       0       0       0       0       0       0       0       
      +0       0       0       0       0
  1978 ;;      Locals:         0       0       0       0       0       0       0       0       0       0       0       0       
      +0       0       0       0       0
  1979 ;;      Temps:          1       0       0       0       0       0       0       0       0       0       0       0       
      +0       0       0       0       0
  1980 ;;      Totals:         1       0       0       0       0       0       0       0       0       0       0       0       
      +0       0       0       0       0
  1981 ;;Total ram usage:        1 bytes
  1982 ;; Hardware stack levels used: 1
  1983 ;; Hardware stack levels required when called: 8
  1984 ;; This function calls:
  1985 ;;		_SPI1_ExchangeByte
  1986 ;;		_nrf24_write_register
  1987 ;; This function is called by:
  1988 ;;		_nrf24_read_rf_data
  1989 ;;		_HandlePacketLoop
  1990 ;; This function uses a non-reentrant model
  1991 ;;
  1992                           
  1993                           	psect	text15
  1994  001BAE                     __ptext15:
  1995                           	callstack 0
  1996  001BAE                     _nrf24_flush_tx_rx:
  1997                           	callstack 20
  1998  001BAE  928B               	bcf	139,1,c	;volatile
  1999  001BB0                     
  2000                           ;../lib/nrf24_lib.c: 101:     nrf24_write_register(0x07, 0x70);
  2001  001BB0  0E70               	movlw	112
  2002  001BB2  6E22               	movwf	nrf24_write_register@value^0,c
  2003  001BB4  0E07               	movlw	7
  2004  001BB6  EC2E  F00C         	call	_nrf24_write_register
  2005  001BBA                     
  2006                           ;../lib/nrf24_lib.c: 102:     _delay((unsigned long)((10)*(1000000/4000.0)));
  2007  001BBA  0E04               	movlw	4
  2008  001BBC  6E24               	movwf	??_nrf24_flush_tx_rx^0,c
  2009  001BBE  0E3E               	movlw	62
  2010  001BC0                     u1107:
  2011  001BC0  2EE8               	decfsz	wreg,f,c
  2012  001BC2  D7FE               	bra	u1107
  2013  001BC4  2E24               	decfsz	??_nrf24_flush_tx_rx^0,f,c
  2014  001BC6  D7FC               	bra	u1107
  2015  001BC8  828B               	bsf	139,1,c	;volatile
  2016  001BCA  928B               	bcf	139,1,c	;volatile
  2017  001BCC                     
  2018                           ;../lib/nrf24_lib.c: 106:     SPI1_ExchangeByte(0xE1);
  2019  001BCC  0EE1               	movlw	225
  2020  001BCE  EC3F  F00F         	call	_SPI1_ExchangeByte
  2021  001BD2                     
  2022                           ;../lib/nrf24_lib.c: 107:     _delay((unsigned long)((10)*(1000000/4000.0)));
  2023  001BD2  0E04               	movlw	4
  2024  001BD4  6E24               	movwf	??_nrf24_flush_tx_rx^0,c
  2025  001BD6  0E3E               	movlw	62
  2026  001BD8                     u1117:
  2027  001BD8  2EE8               	decfsz	wreg,f,c
  2028  001BDA  D7FE               	bra	u1117
  2029  001BDC  2E24               	decfsz	??_nrf24_flush_tx_rx^0,f,c
  2030  001BDE  D7FC               	bra	u1117
  2031  001BE0  828B               	bsf	139,1,c	;volatile
  2032  001BE2  928B               	bcf	139,1,c	;volatile
  2033  001BE4                     
  2034                           ;../lib/nrf24_lib.c: 111:     SPI1_ExchangeByte(0xE2);
  2035  001BE4  0EE2               	movlw	226
  2036  001BE6  EC3F  F00F         	call	_SPI1_ExchangeByte
  2037  001BEA                     
  2038                           ;../lib/nrf24_lib.c: 112:     _delay((unsigned long)((10)*(1000000/4000.0)));
  2039  001BEA  0E04               	movlw	4
  2040  001BEC  6E24               	movwf	??_nrf24_flush_tx_rx^0,c
  2041  001BEE  0E3E               	movlw	62
  2042  001BF0                     u1127:
  2043  001BF0  2EE8               	decfsz	wreg,f,c
  2044  001BF2  D7FE               	bra	u1127
  2045  001BF4  2E24               	decfsz	??_nrf24_flush_tx_rx^0,f,c
  2046  001BF6  D7FC               	bra	u1127
  2047  001BF8  828B               	bsf	139,1,c	;volatile
  2048  001BFA  0012               	return		;funcret
  2049  001BFC                     __end_of_nrf24_flush_tx_rx:
  2050                           	callstack 0
  2051                           
  2052 ;; *************** function _nrf24_read_register *****************
  2053 ;; Defined at:
  2054 ;;		line 27 in file "../lib/nrf24_lib.c"
  2055 ;; Parameters:    Size  Location     Type
  2056 ;;  mnemonic_add    1    wreg     unsigned char 
  2057 ;; Auto vars:     Size  Location     Type
  2058 ;;  mnemonic_add    1   33[COMRAM] unsigned char 
  2059 ;;  byte0           1   34[COMRAM] unsigned char 
  2060 ;; Return value:  Size  Location     Type
  2061 ;;                  1    wreg      unsigned char 
  2062 ;; Registers used:
  2063 ;;		wreg, status,2, status,0, cstack
  2064 ;; Tracked objects:
  2065 ;;		On entry : 0/0
  2066 ;;		On exit  : 0/0
  2067 ;;		Unchanged: 0/0
  2068 ;; Data sizes:     COMRAM   BANK0   BANK1   BANK2   BANK3   BANK4   BANK5   BANK6   BANK7   BANK8   BANK9  BANK10  BANK1
      +1  BANK12  BANK13  BANK14  BANK15
  2069 ;;      Params:         0       0       0       0       0       0       0       0       0       0       0       0       
      +0       0       0       0       0
  2070 ;;      Locals:         2       0       0       0       0       0       0       0       0       0       0       0       
      +0       0       0       0       0
  2071 ;;      Temps:          0       0       0       0       0       0       0       0       0       0       0       0       
      +0       0       0       0       0
  2072 ;;      Totals:         2       0       0       0       0       0       0       0       0       0       0       0       
      +0       0       0       0       0
  2073 ;;Total ram usage:        2 bytes
  2074 ;; Hardware stack levels used: 1
  2075 ;; Hardware stack levels required when called: 7
  2076 ;; This function calls:
  2077 ;;		_SPI1_ExchangeByte
  2078 ;; This function is called by:
  2079 ;;		_HandlePacketLoop
  2080 ;;		_nrf24_is_rf_data_available
  2081 ;; This function uses a non-reentrant model
  2082 ;;
  2083                           
  2084                           	psect	text16
  2085  001E64                     __ptext16:
  2086                           	callstack 0
  2087  001E64                     _nrf24_read_register:
  2088                           	callstack 22
  2089                           
  2090                           ;incstack = 0
  2091                           ;nrf24_read_register@mnemonic_addr stored from wreg
  2092  001E64  6E22               	movwf	nrf24_read_register@mnemonic_addr^0,c
  2093  001E66  928B               	bcf	139,1,c	;volatile
  2094  001E68                     
  2095                           ;../lib/nrf24_lib.c: 30:     SPI1_ExchangeByte(0x00 | (mnemonic_addr & 0x1F));
  2096  001E68  5022               	movf	nrf24_read_register@mnemonic_addr^0,w,c
  2097  001E6A  0B1F               	andlw	31
  2098  001E6C  EC3F  F00F         	call	_SPI1_ExchangeByte
  2099  001E70                     
  2100                           ;../lib/nrf24_lib.c: 31:     byte0 = SPI1_ExchangeByte(0xFF);
  2101  001E70  0EFF               	movlw	255
  2102  001E72  EC3F  F00F         	call	_SPI1_ExchangeByte
  2103  001E76  6E23               	movwf	nrf24_read_register@byte0^0,c
  2104  001E78  828B               	bsf	139,1,c	;volatile
  2105  001E7A                     
  2106                           ;../lib/nrf24_lib.c: 33:     return byte0;
  2107  001E7A  5023               	movf	nrf24_read_register@byte0^0,w,c
  2108  001E7C  0012               	return		;funcret
  2109  001E7E                     __end_of_nrf24_read_register:
  2110                           	callstack 0
  2111                           
  2112 ;; *************** function _nrf24_read_dynamic_payload_length *****************
  2113 ;; Defined at:
  2114 ;;		line 36 in file "../lib/nrf24_lib.c"
  2115 ;; Parameters:    Size  Location     Type
  2116 ;;		None
  2117 ;; Auto vars:     Size  Location     Type
  2118 ;;  byte0           1   33[COMRAM] unsigned char 
  2119 ;; Return value:  Size  Location     Type
  2120 ;;                  1    wreg      unsigned char 
  2121 ;; Registers used:
  2122 ;;		wreg, status,2, cstack
  2123 ;; Tracked objects:
  2124 ;;		On entry : 0/0
  2125 ;;		On exit  : 0/0
  2126 ;;		Unchanged: 0/0
  2127 ;; Data sizes:     COMRAM   BANK0   BANK1   BANK2   BANK3   BANK4   BANK5   BANK6   BANK7   BANK8   BANK9  BANK10  BANK1
      +1  BANK12  BANK13  BANK14  BANK15
  2128 ;;      Params:         0       0       0       0       0       0       0       0       0       0       0       0       
      +0       0       0       0       0
  2129 ;;      Locals:         1       0       0       0       0       0       0       0       0       0       0       0       
      +0       0       0       0       0
  2130 ;;      Temps:          0       0       0       0       0       0       0       0       0       0       0       0       
      +0       0       0       0       0
  2131 ;;      Totals:         1       0       0       0       0       0       0       0       0       0       0       0       
      +0       0       0       0       0
  2132 ;;Total ram usage:        1 bytes
  2133 ;; Hardware stack levels used: 1
  2134 ;; Hardware stack levels required when called: 7
  2135 ;; This function calls:
  2136 ;;		_SPI1_ExchangeByte
  2137 ;; This function is called by:
  2138 ;;		_HandlePacketLoop
  2139 ;; This function uses a non-reentrant model
  2140 ;;
  2141                           
  2142                           	psect	text17
  2143  001E28                     __ptext17:
  2144                           	callstack 0
  2145  001E28                     _nrf24_read_dynamic_payload_length:
  2146                           	callstack 22
  2147  001E28  928B               	bcf	139,1,c	;volatile
  2148  001E2A                     
  2149                           ;../lib/nrf24_lib.c: 39:     SPI1_ExchangeByte(0x60);
  2150  001E2A  0E60               	movlw	96
  2151  001E2C  EC3F  F00F         	call	_SPI1_ExchangeByte
  2152                           
  2153                           ;../lib/nrf24_lib.c: 40:     byte0 = SPI1_ExchangeByte(0xFF);
  2154  001E30  0EFF               	movlw	255
  2155  001E32  EC3F  F00F         	call	_SPI1_ExchangeByte
  2156  001E36  6E22               	movwf	nrf24_read_dynamic_payload_length@byte0^0,c
  2157  001E38                     
  2158                           ;../lib/nrf24_lib.c: 41:     _delay((unsigned long)((1)*(1000000/4000.0)));
  2159  001E38  0E53               	movlw	83
  2160  001E3A                     u1137:
  2161  001E3A  2EE8               	decfsz	wreg,f,c
  2162  001E3C  D7FE               	bra	u1137
  2163  001E3E  F000               	nop	
  2164  001E40  828B               	bsf	139,1,c	;volatile
  2165  001E42                     
  2166                           ;../lib/nrf24_lib.c: 43:     return byte0;
  2167  001E42  5022               	movf	nrf24_read_dynamic_payload_length@byte0^0,w,c
  2168  001E44  0012               	return		;funcret
  2169  001E46                     __end_of_nrf24_read_dynamic_payload_length:
  2170                           	callstack 0
  2171                           
  2172 ;; *************** function _VerifyBoardAddress *****************
  2173 ;; Defined at:
  2174 ;;		line 151 in file "../lib/handler_lib.c"
  2175 ;; Parameters:    Size  Location     Type
  2176 ;;  bufferRX        2   32[COMRAM] PTR unsigned char 
  2177 ;;		 -> bufferRX(32), 
  2178 ;; Auto vars:     Size  Location     Type
  2179 ;;  i               2   38[COMRAM] int 
  2180 ;; Return value:  Size  Location     Type
  2181 ;;                  1    wreg      _Bool 
  2182 ;; Registers used:
  2183 ;;		wreg, fsr1l, fsr1h, fsr2l, fsr2h, status,2, status,0
  2184 ;; Tracked objects:
  2185 ;;		On entry : 0/0
  2186 ;;		On exit  : 0/0
  2187 ;;		Unchanged: 0/0
  2188 ;; Data sizes:     COMRAM   BANK0   BANK1   BANK2   BANK3   BANK4   BANK5   BANK6   BANK7   BANK8   BANK9  BANK10  BANK1
      +1  BANK12  BANK13  BANK14  BANK15
  2189 ;;      Params:         2       0       0       0       0       0       0       0       0       0       0       0       
      +0       0       0       0       0
  2190 ;;      Locals:         2       0       0       0       0       0       0       0       0       0       0       0       
      +0       0       0       0       0
  2191 ;;      Temps:          4       0       0       0       0       0       0       0       0       0       0       0       
      +0       0       0       0       0
  2192 ;;      Totals:         8       0       0       0       0       0       0       0       0       0       0       0       
      +0       0       0       0       0
  2193 ;;Total ram usage:        8 bytes
  2194 ;; Hardware stack levels used: 1
  2195 ;; Hardware stack levels required when called: 6
  2196 ;; This function calls:
  2197 ;;		Nothing
  2198 ;; This function is called by:
  2199 ;;		_HandlePacketLoop
  2200 ;; This function uses a non-reentrant model
  2201 ;;
  2202                           
  2203                           	psect	text18
  2204  0019B0                     __ptext18:
  2205                           	callstack 0
  2206  0019B0                     _VerifyBoardAddress:
  2207                           	callstack 23
  2208  0019B0                     
  2209                           ;../lib/handler_lib.c: 152:     for (int i = 0; i < 3; i++) {
  2210  0019B0  0E00               	movlw	0
  2211  0019B2  6E28               	movwf	(VerifyBoardAddress@i+1)^0,c
  2212  0019B4  0E00               	movlw	0
  2213  0019B6  6E27               	movwf	VerifyBoardAddress@i^0,c
  2214  0019B8                     l2203:
  2215                           
  2216                           ;../lib/handler_lib.c: 153:         if (BoardAddress[i] != bufferRX[i + 1]) {
  2217  0019B8  5027               	movf	VerifyBoardAddress@i^0,w,c
  2218  0019BA  2421               	addwf	VerifyBoardAddress@bufferRX^0,w,c
  2219  0019BC  6E23               	movwf	??_VerifyBoardAddress^0,c
  2220  0019BE  5028               	movf	(VerifyBoardAddress@i+1)^0,w,c
  2221  0019C0  2022               	addwfc	(VerifyBoardAddress@bufferRX+1)^0,w,c
  2222  0019C2  6E24               	movwf	(??_VerifyBoardAddress+1)^0,c
  2223  0019C4  0E01               	movlw	1
  2224  0019C6  2423               	addwf	??_VerifyBoardAddress^0,w,c
  2225  0019C8  6ED9               	movwf	fsr2l,c
  2226  0019CA  0E00               	movlw	0
  2227  0019CC  2024               	addwfc	(??_VerifyBoardAddress+1)^0,w,c
  2228  0019CE  6EDA               	movwf	fsr2h,c
  2229  0019D0  0E34               	movlw	low _BoardAddress
  2230  0019D2  2427               	addwf	VerifyBoardAddress@i^0,w,c
  2231  0019D4  6EE1               	movwf	fsr1l,c
  2232  0019D6  0E00               	movlw	high _BoardAddress
  2233  0019D8  2028               	addwfc	(VerifyBoardAddress@i+1)^0,w,c
  2234  0019DA  6EE2               	movwf	fsr1h,c
  2235  0019DC  50DE               	movf	postinc2,w,c
  2236  0019DE  18E6               	xorwf	postinc1,w,c
  2237  0019E0  B4D8               	btfsc	status,2,c
  2238  0019E2  EFF5  F00C         	goto	u741
  2239  0019E6  EFF7  F00C         	goto	u740
  2240  0019EA                     u741:
  2241  0019EA  EFFA  F00C         	goto	l2209
  2242  0019EE                     u740:
  2243  0019EE                     
  2244                           ;../lib/handler_lib.c: 154:             return 0;
  2245  0019EE  0E00               	movlw	0
  2246  0019F0  EF0B  F00D         	goto	l450
  2247  0019F4                     l2209:
  2248                           
  2249                           ;../lib/handler_lib.c: 156:     }
  2250  0019F4  4A27               	infsnz	VerifyBoardAddress@i^0,f,c
  2251  0019F6  2A28               	incf	(VerifyBoardAddress@i+1)^0,f,c
  2252  0019F8  BE28               	btfsc	(VerifyBoardAddress@i+1)^0,7,c
  2253  0019FA  EF08  F00D         	goto	u751
  2254  0019FE  5028               	movf	(VerifyBoardAddress@i+1)^0,w,c
  2255  001A00  E109               	bnz	u750
  2256  001A02  0E03               	movlw	3
  2257  001A04  5C27               	subwf	VerifyBoardAddress@i^0,w,c
  2258  001A06  A0D8               	btfss	status,0,c
  2259  001A08  EF08  F00D         	goto	u751
  2260  001A0C  EF0A  F00D         	goto	u750
  2261  001A10                     u751:
  2262  001A10  EFDC  F00C         	goto	l2203
  2263  001A14                     u750:
  2264  001A14                     
  2265                           ;../lib/handler_lib.c: 157:     return 1;
  2266  001A14  0E01               	movlw	1
  2267  001A16                     l450:
  2268  001A16  0012               	return		;funcret
  2269  001A18                     __end_of_VerifyBoardAddress:
  2270                           	callstack 0
  2271                           
  2272 ;; *************** function _ProcessAckPayload *****************
  2273 ;; Defined at:
  2274 ;;		line 160 in file "../lib/handler_lib.c"
  2275 ;; Parameters:    Size  Location     Type
  2276 ;;  buffer          2   25[BANK0 ] PTR unsigned char 
  2277 ;;		 -> bufferRX(32), 
  2278 ;;  sz              1   27[BANK0 ] unsigned char 
  2279 ;; Auto vars:     Size  Location     Type
  2280 ;;  data           32   30[BANK0 ] unsigned char [32]
  2281 ;;  pktType         1   63[BANK0 ] unsigned char 
  2282 ;;  actionID        1   62[BANK0 ] unsigned char 
  2283 ;; Return value:  Size  Location     Type
  2284 ;;                  1    wreg      void 
  2285 ;; Registers used:
  2286 ;;		wreg, fsr1l, fsr1h, fsr2l, fsr2h, status,2, status,0, prodl, prodh, cstack
  2287 ;; Tracked objects:
  2288 ;;		On entry : 0/0
  2289 ;;		On exit  : 0/0
  2290 ;;		Unchanged: 0/0
  2291 ;; Data sizes:     COMRAM   BANK0   BANK1   BANK2   BANK3   BANK4   BANK5   BANK6   BANK7   BANK8   BANK9  BANK10  BANK1
      +1  BANK12  BANK13  BANK14  BANK15
  2292 ;;      Params:         0       3       0       0       0       0       0       0       0       0       0       0       
      +0       0       0       0       0
  2293 ;;      Locals:         0      34       0       0       0       0       0       0       0       0       0       0       
      +0       0       0       0       0
  2294 ;;      Temps:          0       2       0       0       0       0       0       0       0       0       0       0       
      +0       0       0       0       0
  2295 ;;      Totals:         0      39       0       0       0       0       0       0       0       0       0       0       
      +0       0       0       0       0
  2296 ;;Total ram usage:       39 bytes
  2297 ;; Hardware stack levels used: 1
  2298 ;; Hardware stack levels required when called: 10
  2299 ;; This function calls:
  2300 ;;		_ProcessActionRequest
  2301 ;;		_SendError
  2302 ;;		_SuperMemCpy
  2303 ;; This function is called by:
  2304 ;;		_HandlePacketLoop
  2305 ;; This function uses a non-reentrant model
  2306 ;;
  2307                           
  2308                           	psect	text19
  2309  001144                     __ptext19:
  2310                           	callstack 0
  2311  001144                     _ProcessAckPayload:
  2312                           	callstack 19
  2313  001144                     
  2314                           ;../lib/handler_lib.c: 161:     uint8_t data[32];;../lib/handler_lib.c: 162:     uint8_t
      +                           actionID;;../lib/handler_lib.c: 164:     uint8_t pktType = buffer[0];
  2315  001144  C0CC  FFD9         	movff	ProcessAckPayload@buffer,fsr2l
  2316  001148  C0CD  FFDA         	movff	ProcessAckPayload@buffer+1,fsr2h
  2317  00114C  50DF               	movf	indf2,w,c
  2318  00114E  0100               	movlb	0	; () banked
  2319  001150  6FF2               	movwf	ProcessAckPayload@pktType& (0+255),b
  2320                           
  2321                           ;../lib/handler_lib.c: 165:     switch (pktType) {
  2322  001152  EF21  F009         	goto	l2601
  2323  001156                     l2583:
  2324                           
  2325                           ; BSR set to: 0
  2326                           ;../lib/handler_lib.c: 167:             actionID = buffer[4];
  2327  001156  EE20 F004          	lfsr	2,4
  2328  00115A  51CC               	movf	ProcessAckPayload@buffer& (0+255),w,b
  2329  00115C  26D9               	addwf	fsr2l,f,c
  2330  00115E  51CD               	movf	(ProcessAckPayload@buffer+1)& (0+255),w,b
  2331  001160  22DA               	addwfc	fsr2h,f,c
  2332  001162  50DF               	movf	indf2,w,c
  2333  001164  6FF1               	movwf	ProcessAckPayload@actionID& (0+255),b
  2334  001166                     
  2335                           ; BSR set to: 0
  2336                           ;../lib/handler_lib.c: 168:             SuperMemCpy(data, 0, buffer, 5, sz - 5);
  2337  001166  0ED1               	movlw	low ProcessAckPayload@data
  2338  001168  6E21               	movwf	SuperMemCpy@dest^0,c
  2339  00116A  0E00               	movlw	high ProcessAckPayload@data
  2340  00116C  6E22               	movwf	(SuperMemCpy@dest+1)^0,c
  2341  00116E  0E00               	movlw	0
  2342  001170  6E23               	movwf	SuperMemCpy@destStart^0,c
  2343  001172  C0CC  F024         	movff	ProcessAckPayload@buffer,SuperMemCpy@src
  2344  001176  C0CD  F025         	movff	ProcessAckPayload@buffer+1,SuperMemCpy@src+1
  2345  00117A  0E05               	movlw	5
  2346  00117C  6E26               	movwf	SuperMemCpy@srcStart^0,c
  2347  00117E  51CE               	movf	ProcessAckPayload@sz& (0+255),w,b
  2348  001180  0FFB               	addlw	251
  2349  001182  6E27               	movwf	SuperMemCpy@sz^0,c
  2350  001184  EC35  F00D         	call	_SuperMemCpy	;wreg free
  2351  001188                     
  2352                           ;../lib/handler_lib.c: 169:             ProcessActionRequest(actionID, data);
  2353  001188  0ED1               	movlw	low ProcessAckPayload@data
  2354  00118A  0100               	movlb	0	; () banked
  2355  00118C  6FC5               	movwf	ProcessActionRequest@data& (0+255),b
  2356  00118E  0E00               	movlw	high ProcessAckPayload@data
  2357  001190  6FC6               	movwf	(ProcessActionRequest@data+1)& (0+255),b
  2358  001192  51F1               	movf	ProcessAckPayload@actionID& (0+255),w,b
  2359  001194  EC4D  F00B         	call	_ProcessActionRequest
  2360                           
  2361                           ;../lib/handler_lib.c: 170:             break;
  2362  001198  EF3A  F009         	goto	l459
  2363  00119C                     l2589:
  2364                           
  2365                           ; BSR set to: 0
  2366                           ;../lib/handler_lib.c: 172:             config.RFChannel = buffer[4];
  2367  00119C  EE20 F004          	lfsr	2,4
  2368  0011A0  51CC               	movf	ProcessAckPayload@buffer& (0+255),w,b
  2369  0011A2  26D9               	addwf	fsr2l,f,c
  2370  0011A4  51CD               	movf	(ProcessAckPayload@buffer+1)& (0+255),w,b
  2371  0011A6  22DA               	addwfc	fsr2h,f,c
  2372  0011A8  50DF               	movf	indf2,w,c
  2373  0011AA  6FA7               	movwf	(_config+5)& (0+255),b
  2374  0011AC                     
  2375                           ; BSR set to: 0
  2376                           ;../lib/handler_lib.c: 173:             SuperMemCpy(config.PipeAddr1, 0, buffer, 5, 5);
  2377  0011AC  0EA8               	movlw	low (_config+6)
  2378  0011AE  6E21               	movwf	SuperMemCpy@dest^0,c
  2379  0011B0  0E00               	movlw	high (_config+6)
  2380  0011B2  6E22               	movwf	(SuperMemCpy@dest+1)^0,c
  2381  0011B4  0E00               	movlw	0
  2382  0011B6  6E23               	movwf	SuperMemCpy@destStart^0,c
  2383  0011B8  C0CC  F024         	movff	ProcessAckPayload@buffer,SuperMemCpy@src
  2384  0011BC  C0CD  F025         	movff	ProcessAckPayload@buffer+1,SuperMemCpy@src+1
  2385  0011C0  0E05               	movlw	5
  2386  0011C2  6E26               	movwf	SuperMemCpy@srcStart^0,c
  2387  0011C4  0E05               	movlw	5
  2388  0011C6  6E27               	movwf	SuperMemCpy@sz^0,c
  2389  0011C8  EC35  F00D         	call	_SuperMemCpy	;wreg free
  2390  0011CC                     
  2391                           ;../lib/handler_lib.c: 174:             SuperMemCpy(config.PipeAddr2, 0, buffer, 10, 5);
  2392  0011CC  0EAD               	movlw	low (_config+11)
  2393  0011CE  6E21               	movwf	SuperMemCpy@dest^0,c
  2394  0011D0  0E00               	movlw	high (_config+11)
  2395  0011D2  6E22               	movwf	(SuperMemCpy@dest+1)^0,c
  2396  0011D4  0E00               	movlw	0
  2397  0011D6  6E23               	movwf	SuperMemCpy@destStart^0,c
  2398  0011D8  C0CC  F024         	movff	ProcessAckPayload@buffer,SuperMemCpy@src
  2399  0011DC  C0CD  F025         	movff	ProcessAckPayload@buffer+1,SuperMemCpy@src+1
  2400  0011E0  0E0A               	movlw	10
  2401  0011E2  6E26               	movwf	SuperMemCpy@srcStart^0,c
  2402  0011E4  0E05               	movlw	5
  2403  0011E6  6E27               	movwf	SuperMemCpy@sz^0,c
  2404  0011E8  EC35  F00D         	call	_SuperMemCpy	;wreg free
  2405                           
  2406                           ;../lib/handler_lib.c: 175:             config.ARD = buffer[15];
  2407  0011EC  0100               	movlb	0	; () banked
  2408  0011EE  EE20 F00F          	lfsr	2,15
  2409  0011F2  51CC               	movf	ProcessAckPayload@buffer& (0+255),w,b
  2410  0011F4  26D9               	addwf	fsr2l,f,c
  2411  0011F6  51CD               	movf	(ProcessAckPayload@buffer+1)& (0+255),w,b
  2412  0011F8  22DA               	addwfc	fsr2h,f,c
  2413  0011FA  50DF               	movf	indf2,w,c
  2414  0011FC  6FB2               	movwf	(_config+16)& (0+255),b
  2415                           
  2416                           ;../lib/handler_lib.c: 176:             break;
  2417  0011FE  EF3A  F009         	goto	l459
  2418  001202                     l2595:
  2419                           
  2420                           ; BSR set to: 0
  2421                           ;../lib/handler_lib.c: 178:             SuperMemCpy(config.Address, 0, buffer, 4, 3);
  2422  001202  0EA3               	movlw	low (_config+1)
  2423  001204  6E21               	movwf	SuperMemCpy@dest^0,c
  2424  001206  0E00               	movlw	high (_config+1)
  2425  001208  6E22               	movwf	(SuperMemCpy@dest+1)^0,c
  2426  00120A  0E00               	movlw	0
  2427  00120C  6E23               	movwf	SuperMemCpy@destStart^0,c
  2428  00120E  C0CC  F024         	movff	ProcessAckPayload@buffer,SuperMemCpy@src
  2429  001212  C0CD  F025         	movff	ProcessAckPayload@buffer+1,SuperMemCpy@src+1
  2430  001216  0E04               	movlw	4
  2431  001218  6E26               	movwf	SuperMemCpy@srcStart^0,c
  2432  00121A  0E03               	movlw	3
  2433  00121C  6E27               	movwf	SuperMemCpy@sz^0,c
  2434  00121E  EC35  F00D         	call	_SuperMemCpy	;wreg free
  2435  001222                     
  2436                           ;../lib/handler_lib.c: 179:             config.PingInterval = buffer[7];
  2437  001222  0100               	movlb	0	; () banked
  2438  001224  EE20 F007          	lfsr	2,7
  2439  001228  51CC               	movf	ProcessAckPayload@buffer& (0+255),w,b
  2440  00122A  26D9               	addwf	fsr2l,f,c
  2441  00122C  51CD               	movf	(ProcessAckPayload@buffer+1)& (0+255),w,b
  2442  00122E  22DA               	addwfc	fsr2h,f,c
  2443  001230  50DF               	movf	indf2,w,c
  2444  001232  6FA6               	movwf	(_config+4)& (0+255),b
  2445                           
  2446                           ;../lib/handler_lib.c: 180:             break;
  2447  001234  EF3A  F009         	goto	l459
  2448  001238                     l2599:
  2449                           
  2450                           ; BSR set to: 0
  2451                           ;../lib/handler_lib.c: 182:             SendError(0x04);
  2452  001238  0E04               	movlw	4
  2453  00123A  EC6E  F00C         	call	_SendError
  2454                           
  2455                           ;../lib/handler_lib.c: 183:     }
  2456  00123E  EF3A  F009         	goto	l459
  2457  001242                     l2601:
  2458                           
  2459                           ; BSR set to: 0
  2460  001242  51F2               	movf	ProcessAckPayload@pktType& (0+255),w,b
  2461  001244  6FCF               	movwf	??_ProcessAckPayload& (0+255),b
  2462  001246  6BD0               	clrf	(??_ProcessAckPayload+1)& (0+255),b
  2463                           
  2464                           ; Switch on 2 bytes has been partitioned into a top level switch of size 1, and 1 sub-sw
      +                          itches
  2465                           ; Switch size 1, requested type "simple"
  2466                           ; Number of cases is 1, Range of values is 0 to 0
  2467                           ; switch strategies available:
  2468                           ; Name         Instructions Cycles
  2469                           ; simple_byte            4     3 (average)
  2470                           ;	Chosen strategy is simple_byte
  2471  001248  51D0               	movf	(??_ProcessAckPayload+1)& (0+255),w,b
  2472  00124A  0A00               	xorlw	0	; case 0
  2473  00124C  B4D8               	btfsc	status,2,c
  2474  00124E  EF2B  F009         	goto	l2771
  2475  001252  EF1C  F009         	goto	l2599
  2476  001256                     l2771:
  2477                           
  2478                           ; BSR set to: 0
  2479                           ; Switch size 1, requested type "simple"
  2480                           ; Number of cases is 3, Range of values is 3 to 16
  2481                           ; switch strategies available:
  2482                           ; Name         Instructions Cycles
  2483                           ; simple_byte           10     6 (average)
  2484                           ;	Chosen strategy is simple_byte
  2485  001256  51CF               	movf	??_ProcessAckPayload& (0+255),w,b
  2486  001258  0A03               	xorlw	3	; case 3
  2487  00125A  B4D8               	btfsc	status,2,c
  2488  00125C  EFCE  F008         	goto	l2589
  2489  001260  0A07               	xorlw	7	; case 4
  2490  001262  B4D8               	btfsc	status,2,c
  2491  001264  EF01  F009         	goto	l2595
  2492  001268  0A14               	xorlw	20	; case 16
  2493  00126A  B4D8               	btfsc	status,2,c
  2494  00126C  EFAB  F008         	goto	l2583
  2495  001270  EF1C  F009         	goto	l2599
  2496  001274                     l459:
  2497  001274  0012               	return		;funcret
  2498  001276                     __end_of_ProcessAckPayload:
  2499                           	callstack 0
  2500                           
  2501 ;; *************** function _ProcessActionRequest *****************
  2502 ;; Defined at:
  2503 ;;		line 41 in file "main.c"
  2504 ;; Parameters:    Size  Location     Type
  2505 ;;  actionID        1    wreg     unsigned char 
  2506 ;;  data            2   18[BANK0 ] PTR unsigned char 
  2507 ;;		 -> ProcessAckPayload@data(32), 
  2508 ;; Auto vars:     Size  Location     Type
  2509 ;;  actionID        1   22[BANK0 ] unsigned char 
  2510 ;;  tmpHumidity     2   23[BANK0 ] unsigned char [2]
  2511 ;; Return value:  Size  Location     Type
  2512 ;;                  1    wreg      void 
  2513 ;; Registers used:
  2514 ;;		wreg, fsr1l, fsr1h, fsr2l, fsr2h, status,2, status,0, prodl, prodh, cstack
  2515 ;; Tracked objects:
  2516 ;;		On entry : 0/0
  2517 ;;		On exit  : 0/0
  2518 ;;		Unchanged: 0/0
  2519 ;; Data sizes:     COMRAM   BANK0   BANK1   BANK2   BANK3   BANK4   BANK5   BANK6   BANK7   BANK8   BANK9  BANK10  BANK1
      +1  BANK12  BANK13  BANK14  BANK15
  2520 ;;      Params:         0       2       0       0       0       0       0       0       0       0       0       0       
      +0       0       0       0       0
  2521 ;;      Locals:         0       3       0       0       0       0       0       0       0       0       0       0       
      +0       0       0       0       0
  2522 ;;      Temps:          0       2       0       0       0       0       0       0       0       0       0       0       
      +0       0       0       0       0
  2523 ;;      Totals:         0       7       0       0       0       0       0       0       0       0       0       0       
      +0       0       0       0       0
  2524 ;;Total ram usage:        7 bytes
  2525 ;; Hardware stack levels used: 1
  2526 ;; Hardware stack levels required when called: 9
  2527 ;; This function calls:
  2528 ;;		_GetMockTempHumidity
  2529 ;;		_ReloadConfig
  2530 ;;		_SendData
  2531 ;;		_SendError
  2532 ;; This function is called by:
  2533 ;;		_ProcessAckPayload
  2534 ;; This function uses a non-reentrant model
  2535 ;;
  2536                           
  2537                           	psect	text20
  2538  00169A                     __ptext20:
  2539                           	callstack 0
  2540  00169A                     _ProcessActionRequest:
  2541                           	callstack 19
  2542                           
  2543                           ;incstack = 0
  2544                           ;ProcessActionRequest@actionID stored from wreg
  2545  00169A  0100               	movlb	0	; () banked
  2546  00169C  6FC9               	movwf	ProcessActionRequest@actionID& (0+255),b
  2547  00169E                     
  2548                           ;main.c: 42:     uint8_t tmpHumidity[] = {0, 0};
  2549  00169E  0E00               	movlw	0
  2550  0016A0  0100               	movlb	0	; () banked
  2551  0016A2  6FCB               	movwf	(ProcessActionRequest@tmpHumidity+1)& (0+255),b
  2552  0016A4  0E00               	movlw	0
  2553  0016A6  6FCA               	movwf	ProcessActionRequest@tmpHumidity& (0+255),b
  2554                           
  2555                           ;main.c: 44:     switch (actionID) {
  2556  0016A8  EF84  F00B         	goto	l2573
  2557  0016AC                     l242:
  2558                           
  2559                           ; BSR set to: 0
  2560  0016AC  9289               	bcf	137,1,c	;volatile
  2561  0016AE                     
  2562                           ; BSR set to: 0
  2563                           ;main.c: 47:             if (data[0]) {
  2564  0016AE  C0C5  FFD9         	movff	ProcessActionRequest@data,fsr2l
  2565  0016B2  C0C6  FFDA         	movff	ProcessActionRequest@data+1,fsr2h
  2566  0016B6  50DF               	movf	indf2,w,c
  2567  0016B8  B4D8               	btfsc	status,2,c
  2568  0016BA  EF61  F00B         	goto	u991
  2569  0016BE  EF63  F00B         	goto	u990
  2570  0016C2                     u991:
  2571  0016C2  EFA1  F00B         	goto	l252
  2572  0016C6                     u990:
  2573  0016C6                     
  2574                           ; BSR set to: 0
  2575  0016C6  8289               	bsf	137,1,c	;volatile
  2576  0016C8  EFA1  F00B         	goto	l252
  2577  0016CC                     l2565:
  2578                           
  2579                           ; BSR set to: 0
  2580                           ;main.c: 52:             ReloadConfig();
  2581  0016CC  ECA3  F00C         	call	_ReloadConfig	;wreg free
  2582                           
  2583                           ;main.c: 53:             break;
  2584  0016D0  EFA1  F00B         	goto	l252
  2585  0016D4                     l2567:
  2586                           
  2587                           ; BSR set to: 0
  2588                           ;main.c: 55:             GetMockTempHumidity(tmpHumidity);
  2589  0016D4  0ECA               	movlw	low ProcessActionRequest@tmpHumidity
  2590  0016D6  6E21               	movwf	GetMockTempHumidity@temp^0,c
  2591  0016D8  0E00               	movlw	high ProcessActionRequest@tmpHumidity
  2592  0016DA  6E22               	movwf	(GetMockTempHumidity@temp+1)^0,c
  2593  0016DC  EC23  F00F         	call	_GetMockTempHumidity	;wreg free
  2594  0016E0                     
  2595                           ;main.c: 56:             SendData(0x02, tmpHumidity, 2);
  2596  0016E0  0ECA               	movlw	low ProcessActionRequest@tmpHumidity
  2597  0016E2  0100               	movlb	0	; () banked
  2598  0016E4  6FC0               	movwf	SendData@data& (0+255),b
  2599  0016E6  0E00               	movlw	high ProcessActionRequest@tmpHumidity
  2600  0016E8  6FC1               	movwf	(SendData@data+1)& (0+255),b
  2601  0016EA  0E02               	movlw	2
  2602  0016EC  6FC2               	movwf	SendData@dataSz& (0+255),b
  2603  0016EE  0E02               	movlw	2
  2604  0016F0  ECA2  F00B         	call	_SendData
  2605                           
  2606                           ;main.c: 57:             break;
  2607  0016F4  EFA1  F00B         	goto	l252
  2608  0016F8                     l250:
  2609                           
  2610                           ; BSR set to: 0
  2611  0016F8  00FF               	reset		;# 
  2612                           
  2613                           ;main.c: 60:             break;
  2614  0016FA  EFA1  F00B         	goto	l252
  2615  0016FE                     l2571:
  2616                           
  2617                           ; BSR set to: 0
  2618                           ;main.c: 62:             SendError(0x04);
  2619  0016FE  0E04               	movlw	4
  2620  001700  EC6E  F00C         	call	_SendError
  2621                           
  2622                           ;main.c: 63:     }
  2623  001704  EFA1  F00B         	goto	l252
  2624  001708                     l2573:
  2625                           
  2626                           ; BSR set to: 0
  2627  001708  51C9               	movf	ProcessActionRequest@actionID& (0+255),w,b
  2628  00170A  6FC7               	movwf	??_ProcessActionRequest& (0+255),b
  2629  00170C  6BC8               	clrf	(??_ProcessActionRequest+1)& (0+255),b
  2630                           
  2631                           ; Switch on 2 bytes has been partitioned into a top level switch of size 1, and 1 sub-sw
      +                          itches
  2632                           ; Switch size 1, requested type "simple"
  2633                           ; Number of cases is 1, Range of values is 0 to 0
  2634                           ; switch strategies available:
  2635                           ; Name         Instructions Cycles
  2636                           ; simple_byte            4     3 (average)
  2637                           ;	Chosen strategy is simple_byte
  2638  00170E  51C8               	movf	(??_ProcessActionRequest+1)& (0+255),w,b
  2639  001710  0A00               	xorlw	0	; case 0
  2640  001712  B4D8               	btfsc	status,2,c
  2641  001714  EF8E  F00B         	goto	l2773
  2642  001718  EF7F  F00B         	goto	l2571
  2643  00171C                     l2773:
  2644                           
  2645                           ; BSR set to: 0
  2646                           ; Switch size 1, requested type "simple"
  2647                           ; Number of cases is 4, Range of values is 2 to 21
  2648                           ; switch strategies available:
  2649                           ; Name         Instructions Cycles
  2650                           ; simple_byte           13     7 (average)
  2651                           ;	Chosen strategy is simple_byte
  2652  00171C  51C7               	movf	??_ProcessActionRequest& (0+255),w,b
  2653  00171E  0A02               	xorlw	2	; case 2
  2654  001720  B4D8               	btfsc	status,2,c
  2655  001722  EF6A  F00B         	goto	l2567
  2656  001726  0A11               	xorlw	17	; case 19
  2657  001728  B4D8               	btfsc	status,2,c
  2658  00172A  EF56  F00B         	goto	l242
  2659  00172E  0A07               	xorlw	7	; case 20
  2660  001730  B4D8               	btfsc	status,2,c
  2661  001732  EF7C  F00B         	goto	l250
  2662  001736  0A01               	xorlw	1	; case 21
  2663  001738  B4D8               	btfsc	status,2,c
  2664  00173A  EF66  F00B         	goto	l2565
  2665  00173E  EF7F  F00B         	goto	l2571
  2666  001742                     l252:
  2667  001742  0012               	return		;funcret
  2668  001744                     __end_of_ProcessActionRequest:
  2669                           	callstack 0
  2670                           
  2671 ;; *************** function _SendError *****************
  2672 ;; Defined at:
  2673 ;;		line 201 in file "../lib/handler_lib.c"
  2674 ;; Parameters:    Size  Location     Type
  2675 ;;  errorCode       1    wreg     unsigned char 
  2676 ;; Auto vars:     Size  Location     Type
  2677 ;;  errorCode       1   13[BANK0 ] unsigned char 
  2678 ;;  i               1   14[BANK0 ] unsigned char 
  2679 ;; Return value:  Size  Location     Type
  2680 ;;                  1    wreg      void 
  2681 ;; Registers used:
  2682 ;;		wreg, fsr1l, fsr1h, fsr2l, fsr2h, status,2, status,0, prodl, prodh, cstack
  2683 ;; Tracked objects:
  2684 ;;		On entry : 0/0
  2685 ;;		On exit  : 0/0
  2686 ;;		Unchanged: 0/0
  2687 ;; Data sizes:     COMRAM   BANK0   BANK1   BANK2   BANK3   BANK4   BANK5   BANK6   BANK7   BANK8   BANK9  BANK10  BANK1
      +1  BANK12  BANK13  BANK14  BANK15
  2688 ;;      Params:         0       0       0       0       0       0       0       0       0       0       0       0       
      +0       0       0       0       0
  2689 ;;      Locals:         0       2       0       0       0       0       0       0       0       0       0       0       
      +0       0       0       0       0
  2690 ;;      Temps:          0       0       0       0       0       0       0       0       0       0       0       0       
      +0       0       0       0       0
  2691 ;;      Totals:         0       2       0       0       0       0       0       0       0       0       0       0       
      +0       0       0       0       0
  2692 ;;Total ram usage:        2 bytes
  2693 ;; Hardware stack levels used: 1
  2694 ;; Hardware stack levels required when called: 8
  2695 ;; This function calls:
  2696 ;;		_QueueTXPacket
  2697 ;;		_SuperMemCpy
  2698 ;; This function is called by:
  2699 ;;		_ProcessActionRequest
  2700 ;;		_ProcessAckPayload
  2701 ;; This function uses a non-reentrant model
  2702 ;;
  2703                           
  2704                           	psect	text21
  2705  0018DC                     __ptext21:
  2706                           	callstack 0
  2707  0018DC                     _SendError:
  2708                           	callstack 20
  2709                           
  2710                           ;incstack = 0
  2711                           ;SendError@errorCode stored from wreg
  2712  0018DC  0100               	movlb	0	; () banked
  2713  0018DE  6FC0               	movwf	SendError@errorCode& (0+255),b
  2714  0018E0                     
  2715                           ;../lib/handler_lib.c: 202:     uint8_t i = 0;
  2716  0018E0  0E00               	movlw	0
  2717  0018E2  0100               	movlb	0	; () banked
  2718  0018E4  6FC1               	movwf	SendError@i& (0+255),b
  2719  0018E6                     
  2720                           ; BSR set to: 0
  2721                           ;../lib/handler_lib.c: 203:     bufferTX[i] = 0x01;
  2722  0018E6  0E01               	movlw	1
  2723  0018E8  6F82               	movwf	_bufferTX& (0+255),b
  2724  0018EA                     
  2725                           ; BSR set to: 0
  2726                           ;../lib/handler_lib.c: 204:     SuperMemCpy(bufferTX, 1, BoardAddress, 0, 3);
  2727  0018EA  0E82               	movlw	low _bufferTX
  2728  0018EC  6E21               	movwf	SuperMemCpy@dest^0,c
  2729  0018EE  0E00               	movlw	high _bufferTX
  2730  0018F0  6E22               	movwf	(SuperMemCpy@dest+1)^0,c
  2731  0018F2  0E01               	movlw	1
  2732  0018F4  6E23               	movwf	SuperMemCpy@destStart^0,c
  2733  0018F6  0E34               	movlw	low _BoardAddress
  2734  0018F8  6E24               	movwf	SuperMemCpy@src^0,c
  2735  0018FA  0E00               	movlw	high _BoardAddress
  2736  0018FC  6E25               	movwf	(SuperMemCpy@src+1)^0,c
  2737  0018FE  0E00               	movlw	0
  2738  001900  6E26               	movwf	SuperMemCpy@srcStart^0,c
  2739  001902  0E03               	movlw	3
  2740  001904  6E27               	movwf	SuperMemCpy@sz^0,c
  2741  001906  EC35  F00D         	call	_SuperMemCpy	;wreg free
  2742  00190A                     
  2743                           ;../lib/handler_lib.c: 205:     i += 3;
  2744  00190A  0E03               	movlw	3
  2745  00190C  0100               	movlb	0	; () banked
  2746  00190E  27C1               	addwf	SendError@i& (0+255),f,b
  2747  001910                     
  2748                           ; BSR set to: 0
  2749                           ;../lib/handler_lib.c: 206:     bufferTX[++i] = 0;
  2750  001910  2BC1               	incf	SendError@i& (0+255),f,b
  2751  001912  0E82               	movlw	low _bufferTX
  2752  001914  25C1               	addwf	SendError@i& (0+255),w,b
  2753  001916  6ED9               	movwf	fsr2l,c
  2754  001918  6ADA               	clrf	fsr2h,c
  2755  00191A  0E00               	movlw	high _bufferTX
  2756  00191C  22DA               	addwfc	fsr2h,f,c
  2757  00191E  0E00               	movlw	0
  2758  001920  6EDF               	movwf	indf2,c
  2759  001922                     
  2760                           ; BSR set to: 0
  2761                           ;../lib/handler_lib.c: 207:     bufferTX[++i] = errorCode;
  2762  001922  2BC1               	incf	SendError@i& (0+255),f,b
  2763  001924  0E82               	movlw	low _bufferTX
  2764  001926  25C1               	addwf	SendError@i& (0+255),w,b
  2765  001928  6ED9               	movwf	fsr2l,c
  2766  00192A  6ADA               	clrf	fsr2h,c
  2767  00192C  0E00               	movlw	high _bufferTX
  2768  00192E  22DA               	addwfc	fsr2h,f,c
  2769  001930  C0C0  FFDF         	movff	SendError@errorCode,indf2
  2770  001934                     
  2771                           ; BSR set to: 0
  2772                           ;../lib/handler_lib.c: 208:     QueueTXPacket(bufferTX, (i + 1));
  2773  001934  0E82               	movlw	low _bufferTX
  2774  001936  6FB3               	movwf	QueueTXPacket@buffer& (0+255),b
  2775  001938  0E00               	movlw	high _bufferTX
  2776  00193A  6FB4               	movwf	(QueueTXPacket@buffer+1)& (0+255),b
  2777  00193C  29C1               	incf	SendError@i& (0+255),w,b
  2778  00193E  6FB5               	movwf	QueueTXPacket@sz& (0+255),b
  2779  001940  ECD1  F009         	call	_QueueTXPacket	;wreg free
  2780  001944  0012               	return		;funcret
  2781  001946                     __end_of_SendError:
  2782                           	callstack 0
  2783                           
  2784 ;; *************** function _SendData *****************
  2785 ;; Defined at:
  2786 ;;		line 211 in file "../lib/handler_lib.c"
  2787 ;; Parameters:    Size  Location     Type
  2788 ;;  actionID        1    wreg     unsigned char 
  2789 ;;  data            2   13[BANK0 ] PTR unsigned char 
  2790 ;;		 -> ProcessActionRequest@tmpHumidity(2), 
  2791 ;;  dataSz          1   15[BANK0 ] unsigned char 
  2792 ;; Auto vars:     Size  Location     Type
  2793 ;;  actionID        1   16[BANK0 ] unsigned char 
  2794 ;;  i               1   17[BANK0 ] unsigned char 
  2795 ;; Return value:  Size  Location     Type
  2796 ;;                  1    wreg      void 
  2797 ;; Registers used:
  2798 ;;		wreg, fsr1l, fsr1h, fsr2l, fsr2h, status,2, status,0, prodl, prodh, cstack
  2799 ;; Tracked objects:
  2800 ;;		On entry : 0/0
  2801 ;;		On exit  : 0/0
  2802 ;;		Unchanged: 0/0
  2803 ;; Data sizes:     COMRAM   BANK0   BANK1   BANK2   BANK3   BANK4   BANK5   BANK6   BANK7   BANK8   BANK9  BANK10  BANK1
      +1  BANK12  BANK13  BANK14  BANK15
  2804 ;;      Params:         0       3       0       0       0       0       0       0       0       0       0       0       
      +0       0       0       0       0
  2805 ;;      Locals:         0       2       0       0       0       0       0       0       0       0       0       0       
      +0       0       0       0       0
  2806 ;;      Temps:          0       0       0       0       0       0       0       0       0       0       0       0       
      +0       0       0       0       0
  2807 ;;      Totals:         0       5       0       0       0       0       0       0       0       0       0       0       
      +0       0       0       0       0
  2808 ;;Total ram usage:        5 bytes
  2809 ;; Hardware stack levels used: 1
  2810 ;; Hardware stack levels required when called: 8
  2811 ;; This function calls:
  2812 ;;		_QueueTXPacket
  2813 ;;		_SuperMemCpy
  2814 ;; This function is called by:
  2815 ;;		_ProcessActionRequest
  2816 ;; This function uses a non-reentrant model
  2817 ;;
  2818                           
  2819                           	psect	text22
  2820  001744                     __ptext22:
  2821                           	callstack 0
  2822  001744                     _SendData:
  2823                           	callstack 19
  2824                           
  2825                           ;incstack = 0
  2826                           ;SendData@actionID stored from wreg
  2827  001744  0100               	movlb	0	; () banked
  2828  001746  6FC3               	movwf	SendData@actionID& (0+255),b
  2829  001748                     
  2830                           ;../lib/handler_lib.c: 212:     uint8_t i = 0;
  2831  001748  0E00               	movlw	0
  2832  00174A  0100               	movlb	0	; () banked
  2833  00174C  6FC4               	movwf	SendData@i& (0+255),b
  2834  00174E                     
  2835                           ; BSR set to: 0
  2836                           ;../lib/handler_lib.c: 213:     bufferTX[i] = 0x01;
  2837  00174E  0E01               	movlw	1
  2838  001750  6F82               	movwf	_bufferTX& (0+255),b
  2839  001752                     
  2840                           ; BSR set to: 0
  2841                           ;../lib/handler_lib.c: 214:     SuperMemCpy(bufferTX, 1, BoardAddress, 0, 3);
  2842  001752  0E82               	movlw	low _bufferTX
  2843  001754  6E21               	movwf	SuperMemCpy@dest^0,c
  2844  001756  0E00               	movlw	high _bufferTX
  2845  001758  6E22               	movwf	(SuperMemCpy@dest+1)^0,c
  2846  00175A  0E01               	movlw	1
  2847  00175C  6E23               	movwf	SuperMemCpy@destStart^0,c
  2848  00175E  0E34               	movlw	low _BoardAddress
  2849  001760  6E24               	movwf	SuperMemCpy@src^0,c
  2850  001762  0E00               	movlw	high _BoardAddress
  2851  001764  6E25               	movwf	(SuperMemCpy@src+1)^0,c
  2852  001766  0E00               	movlw	0
  2853  001768  6E26               	movwf	SuperMemCpy@srcStart^0,c
  2854  00176A  0E03               	movlw	3
  2855  00176C  6E27               	movwf	SuperMemCpy@sz^0,c
  2856  00176E  EC35  F00D         	call	_SuperMemCpy	;wreg free
  2857  001772                     
  2858                           ;../lib/handler_lib.c: 215:     i += 3;
  2859  001772  0E03               	movlw	3
  2860  001774  0100               	movlb	0	; () banked
  2861  001776  27C4               	addwf	SendData@i& (0+255),f,b
  2862  001778                     
  2863                           ; BSR set to: 0
  2864                           ;../lib/handler_lib.c: 216:     bufferTX[++i] = actionID;
  2865  001778  2BC4               	incf	SendData@i& (0+255),f,b
  2866  00177A  0E82               	movlw	low _bufferTX
  2867  00177C  25C4               	addwf	SendData@i& (0+255),w,b
  2868  00177E  6ED9               	movwf	fsr2l,c
  2869  001780  6ADA               	clrf	fsr2h,c
  2870  001782  0E00               	movlw	high _bufferTX
  2871  001784  22DA               	addwfc	fsr2h,f,c
  2872  001786  C0C3  FFDF         	movff	SendData@actionID,indf2
  2873  00178A                     
  2874                           ; BSR set to: 0
  2875                           ;../lib/handler_lib.c: 217:     bufferTX[++i] = 0x00;
  2876  00178A  2BC4               	incf	SendData@i& (0+255),f,b
  2877  00178C  0E82               	movlw	low _bufferTX
  2878  00178E  25C4               	addwf	SendData@i& (0+255),w,b
  2879  001790  6ED9               	movwf	fsr2l,c
  2880  001792  6ADA               	clrf	fsr2h,c
  2881  001794  0E00               	movlw	high _bufferTX
  2882  001796  22DA               	addwfc	fsr2h,f,c
  2883  001798  0E00               	movlw	0
  2884  00179A  6EDF               	movwf	indf2,c
  2885  00179C                     
  2886                           ; BSR set to: 0
  2887                           ;../lib/handler_lib.c: 218:     SuperMemCpy(bufferTX, i + 1, data, 0, dataSz);
  2888  00179C  0E82               	movlw	low _bufferTX
  2889  00179E  6E21               	movwf	SuperMemCpy@dest^0,c
  2890  0017A0  0E00               	movlw	high _bufferTX
  2891  0017A2  6E22               	movwf	(SuperMemCpy@dest+1)^0,c
  2892  0017A4  29C4               	incf	SendData@i& (0+255),w,b
  2893  0017A6  6E23               	movwf	SuperMemCpy@destStart^0,c
  2894  0017A8  C0C0  F024         	movff	SendData@data,SuperMemCpy@src
  2895  0017AC  C0C1  F025         	movff	SendData@data+1,SuperMemCpy@src+1
  2896  0017B0  0E00               	movlw	0
  2897  0017B2  6E26               	movwf	SuperMemCpy@srcStart^0,c
  2898  0017B4  C0C2  F027         	movff	SendData@dataSz,SuperMemCpy@sz
  2899  0017B8  EC35  F00D         	call	_SuperMemCpy	;wreg free
  2900  0017BC                     
  2901                           ;../lib/handler_lib.c: 219:     i += dataSz;
  2902  0017BC  0100               	movlb	0	; () banked
  2903  0017BE  51C2               	movf	SendData@dataSz& (0+255),w,b
  2904  0017C0  27C4               	addwf	SendData@i& (0+255),f,b
  2905  0017C2                     
  2906                           ; BSR set to: 0
  2907                           ;../lib/handler_lib.c: 220:     QueueTXPacket(bufferTX, (i + 1));
  2908  0017C2  0E82               	movlw	low _bufferTX
  2909  0017C4  6FB3               	movwf	QueueTXPacket@buffer& (0+255),b
  2910  0017C6  0E00               	movlw	high _bufferTX
  2911  0017C8  6FB4               	movwf	(QueueTXPacket@buffer+1)& (0+255),b
  2912  0017CA  29C4               	incf	SendData@i& (0+255),w,b
  2913  0017CC  6FB5               	movwf	QueueTXPacket@sz& (0+255),b
  2914  0017CE  ECD1  F009         	call	_QueueTXPacket	;wreg free
  2915  0017D2  0012               	return		;funcret
  2916  0017D4                     __end_of_SendData:
  2917                           	callstack 0
  2918                           
  2919 ;; *************** function _SuperMemCpy *****************
  2920 ;; Defined at:
  2921 ;;		line 229 in file "../lib/handler_lib.c"
  2922 ;; Parameters:    Size  Location     Type
  2923 ;;  dest            2   32[COMRAM] PTR unsigned char 
  2924 ;;		 -> bufferTX(32), ProcessAckPayload@data(32), config(17), 
  2925 ;;  destStart       1   34[COMRAM] unsigned char 
  2926 ;;  src             2   35[COMRAM] PTR unsigned char 
  2927 ;;		 -> bufferRX(32), BoardAddress(3), ProcessActionRequest@tmpHumidity(2), 
  2928 ;;  srcStart        1   37[COMRAM] unsigned char 
  2929 ;;  sz              1   38[COMRAM] unsigned char 
  2930 ;; Auto vars:     Size  Location     Type
  2931 ;;  i               1   43[COMRAM] unsigned char 
  2932 ;; Return value:  Size  Location     Type
  2933 ;;                  1    wreg      void 
  2934 ;; Registers used:
  2935 ;;		wreg, fsr1l, fsr1h, fsr2l, fsr2h, status,2, status,0
  2936 ;; Tracked objects:
  2937 ;;		On entry : 0/0
  2938 ;;		On exit  : 0/0
  2939 ;;		Unchanged: 0/0
  2940 ;; Data sizes:     COMRAM   BANK0   BANK1   BANK2   BANK3   BANK4   BANK5   BANK6   BANK7   BANK8   BANK9  BANK10  BANK1
      +1  BANK12  BANK13  BANK14  BANK15
  2941 ;;      Params:         7       0       0       0       0       0       0       0       0       0       0       0       
      +0       0       0       0       0
  2942 ;;      Locals:         1       0       0       0       0       0       0       0       0       0       0       0       
      +0       0       0       0       0
  2943 ;;      Temps:          4       0       0       0       0       0       0       0       0       0       0       0       
      +0       0       0       0       0
  2944 ;;      Totals:        12       0       0       0       0       0       0       0       0       0       0       0       
      +0       0       0       0       0
  2945 ;;Total ram usage:       12 bytes
  2946 ;; Hardware stack levels used: 1
  2947 ;; Hardware stack levels required when called: 6
  2948 ;; This function calls:
  2949 ;;		Nothing
  2950 ;; This function is called by:
  2951 ;;		_ProcessAckPayload
  2952 ;;		_SendError
  2953 ;;		_SendData
  2954 ;; This function uses a non-reentrant model
  2955 ;;
  2956                           
  2957                           	psect	text23
  2958  001A6A                     __ptext23:
  2959                           	callstack 0
  2960  001A6A                     _SuperMemCpy:
  2961                           	callstack 22
  2962  001A6A                     
  2963                           ;../lib/handler_lib.c: 230:     for (uint8_t i = 0; i < sz; i++) {
  2964  001A6A  0E00               	movlw	0
  2965  001A6C  6E2C               	movwf	SuperMemCpy@i^0,c
  2966  001A6E  EF54  F00D         	goto	l2511
  2967  001A72                     l2507:
  2968                           
  2969                           ;../lib/handler_lib.c: 231:         dest[i + destStart] = src[i + srcStart];
  2970  001A72  502C               	movf	SuperMemCpy@i^0,w,c
  2971  001A74  2424               	addwf	SuperMemCpy@src^0,w,c
  2972  001A76  6E28               	movwf	??_SuperMemCpy^0,c
  2973  001A78  0E00               	movlw	0
  2974  001A7A  2025               	addwfc	(SuperMemCpy@src+1)^0,w,c
  2975  001A7C  6E29               	movwf	(??_SuperMemCpy+1)^0,c
  2976  001A7E  5026               	movf	SuperMemCpy@srcStart^0,w,c
  2977  001A80  2428               	addwf	??_SuperMemCpy^0,w,c
  2978  001A82  6ED9               	movwf	fsr2l,c
  2979  001A84  0E00               	movlw	0
  2980  001A86  2029               	addwfc	(??_SuperMemCpy+1)^0,w,c
  2981  001A88  6EDA               	movwf	fsr2h,c
  2982  001A8A  502C               	movf	SuperMemCpy@i^0,w,c
  2983  001A8C  2421               	addwf	SuperMemCpy@dest^0,w,c
  2984  001A8E  6E2A               	movwf	(??_SuperMemCpy+2)^0,c
  2985  001A90  0E00               	movlw	0
  2986  001A92  2022               	addwfc	(SuperMemCpy@dest+1)^0,w,c
  2987  001A94  6E2B               	movwf	(??_SuperMemCpy+3)^0,c
  2988  001A96  5023               	movf	SuperMemCpy@destStart^0,w,c
  2989  001A98  242A               	addwf	(??_SuperMemCpy+2)^0,w,c
  2990  001A9A  6EE1               	movwf	fsr1l,c
  2991  001A9C  0E00               	movlw	0
  2992  001A9E  202B               	addwfc	(??_SuperMemCpy+3)^0,w,c
  2993  001AA0  6EE2               	movwf	fsr1h,c
  2994  001AA2  CFDF FFE7          	movff	indf2,indf1
  2995  001AA6                     
  2996                           ;../lib/handler_lib.c: 232:     }
  2997  001AA6  2A2C               	incf	SuperMemCpy@i^0,f,c
  2998  001AA8                     l2511:
  2999  001AA8  5027               	movf	SuperMemCpy@sz^0,w,c
  3000  001AAA  5C2C               	subwf	SuperMemCpy@i^0,w,c
  3001  001AAC  A0D8               	btfss	status,0,c
  3002  001AAE  EF5B  F00D         	goto	u981
  3003  001AB2  EF5D  F00D         	goto	u980
  3004  001AB6                     u981:
  3005  001AB6  EF39  F00D         	goto	l2507
  3006  001ABA                     u980:
  3007  001ABA  0012               	return		;funcret
  3008  001ABC                     __end_of_SuperMemCpy:
  3009                           	callstack 0
  3010                           
  3011 ;; *************** function _QueueTXPacket *****************
  3012 ;; Defined at:
  3013 ;;		line 65 in file "../lib/handler_lib.c"
  3014 ;; Parameters:    Size  Location     Type
  3015 ;;  buffer          2    0[BANK0 ] PTR unsigned char 
  3016 ;;		 -> bufferTX(32), 
  3017 ;;  sz              1    2[BANK0 ] unsigned char 
  3018 ;; Auto vars:     Size  Location     Type
  3019 ;;  oldestTime      4    7[BANK0 ] unsigned long 
  3020 ;;  i               1   12[BANK0 ] unsigned char 
  3021 ;;  oldestPkt       1   11[BANK0 ] unsigned char 
  3022 ;; Return value:  Size  Location     Type
  3023 ;;                  1    wreg      void 
  3024 ;; Registers used:
  3025 ;;		wreg, fsr2l, fsr2h, status,2, status,0, prodl, prodh, cstack
  3026 ;; Tracked objects:
  3027 ;;		On entry : 0/0
  3028 ;;		On exit  : 0/0
  3029 ;;		Unchanged: 0/0
  3030 ;; Data sizes:     COMRAM   BANK0   BANK1   BANK2   BANK3   BANK4   BANK5   BANK6   BANK7   BANK8   BANK9  BANK10  BANK1
      +1  BANK12  BANK13  BANK14  BANK15
  3031 ;;      Params:         0       3       0       0       0       0       0       0       0       0       0       0       
      +0       0       0       0       0
  3032 ;;      Locals:         0       6       0       0       0       0       0       0       0       0       0       0       
      +0       0       0       0       0
  3033 ;;      Temps:          0       4       0       0       0       0       0       0       0       0       0       0       
      +0       0       0       0       0
  3034 ;;      Totals:         0      13       0       0       0       0       0       0       0       0       0       0       
      +0       0       0       0       0
  3035 ;;Total ram usage:       13 bytes
  3036 ;; Hardware stack levels used: 1
  3037 ;; Hardware stack levels required when called: 7
  3038 ;; This function calls:
  3039 ;;		_memcpy
  3040 ;; This function is called by:
  3041 ;;		_SendError
  3042 ;;		_SendData
  3043 ;; This function uses a non-reentrant model
  3044 ;;
  3045                           
  3046                           	psect	text24
  3047  0013A2                     __ptext24:
  3048                           	callstack 0
  3049  0013A2                     _QueueTXPacket:
  3050                           	callstack 20
  3051  0013A2                     
  3052                           ;../lib/handler_lib.c: 66:     uint8_t i, oldestPkt = 0;
  3053  0013A2  0E00               	movlw	0
  3054  0013A4  0100               	movlb	0	; () banked
  3055  0013A6  6FBE               	movwf	QueueTXPacket@oldestPkt& (0+255),b
  3056  0013A8                     
  3057                           ; BSR set to: 0
  3058                           ;../lib/handler_lib.c: 67:     uint32_t oldestTime = Ticks;
  3059  0013A8  C03B  F0BA         	movff	_Ticks,QueueTXPacket@oldestTime
  3060  0013AC  C03C  F0BB         	movff	_Ticks+1,QueueTXPacket@oldestTime+1
  3061  0013B0  C03D  F0BC         	movff	_Ticks+2,QueueTXPacket@oldestTime+2
  3062  0013B4  C03E  F0BD         	movff	_Ticks+3,QueueTXPacket@oldestTime+3
  3063                           
  3064                           ;../lib/handler_lib.c: 68:     for (i = 0; i < 8; i++) {
  3065  0013B8  0E00               	movlw	0
  3066  0013BA  6FBF               	movwf	QueueTXPacket@i& (0+255),b
  3067  0013BC                     l2483:
  3068                           
  3069                           ; BSR set to: 0
  3070                           ;../lib/handler_lib.c: 70:         if (packetsTX[i].tmpstmp < oldestTime) {
  3071  0013BC  51BF               	movf	QueueTXPacket@i& (0+255),w,b
  3072  0013BE  0D26               	mullw	38
  3073  0013C0  0E18               	movlw	low (_packetsTX+34)
  3074  0013C2  24F3               	addwf	243,w,c
  3075  0013C4  6ED9               	movwf	fsr2l,c
  3076  0013C6  0E01               	movlw	high (_packetsTX+34)
  3077  0013C8  20F4               	addwfc	prodh,w,c
  3078  0013CA  6EDA               	movwf	fsr2h,c
  3079  0013CC  51BA               	movf	QueueTXPacket@oldestTime& (0+255),w,b
  3080  0013CE  5CDE               	subwf	postinc2,w,c
  3081  0013D0  51BB               	movf	(QueueTXPacket@oldestTime+1)& (0+255),w,b
  3082  0013D2  58DE               	subwfb	postinc2,w,c
  3083  0013D4  51BC               	movf	(QueueTXPacket@oldestTime+2)& (0+255),w,b
  3084  0013D6  58DE               	subwfb	postinc2,w,c
  3085  0013D8  51BD               	movf	(QueueTXPacket@oldestTime+3)& (0+255),w,b
  3086  0013DA  58DE               	subwfb	postinc2,w,c
  3087  0013DC  B0D8               	btfsc	status,0,c
  3088  0013DE  EFF3  F009         	goto	u941
  3089  0013E2  EFF5  F009         	goto	u940
  3090  0013E6                     u941:
  3091  0013E6  EF07  F00A         	goto	l417
  3092  0013EA                     u940:
  3093  0013EA                     
  3094                           ; BSR set to: 0
  3095                           ;../lib/handler_lib.c: 71:             oldestTime = packetsTX[i].tmpstmp;
  3096  0013EA  51BF               	movf	QueueTXPacket@i& (0+255),w,b
  3097  0013EC  0D26               	mullw	38
  3098  0013EE  0E18               	movlw	low (_packetsTX+34)
  3099  0013F0  24F3               	addwf	243,w,c
  3100  0013F2  6ED9               	movwf	fsr2l,c
  3101  0013F4  0E01               	movlw	high (_packetsTX+34)
  3102  0013F6  20F4               	addwfc	prodh,w,c
  3103  0013F8  6EDA               	movwf	fsr2h,c
  3104  0013FA  CFDE F0BA          	movff	postinc2,QueueTXPacket@oldestTime
  3105  0013FE  CFDE F0BB          	movff	postinc2,QueueTXPacket@oldestTime+1
  3106  001402  CFDE F0BC          	movff	postinc2,QueueTXPacket@oldestTime+2
  3107  001406  CFDE F0BD          	movff	postinc2,QueueTXPacket@oldestTime+3
  3108  00140A                     
  3109                           ; BSR set to: 0
  3110                           ;../lib/handler_lib.c: 72:             oldestPkt = i;
  3111  00140A  C0BF  F0BE         	movff	QueueTXPacket@i,QueueTXPacket@oldestPkt
  3112  00140E                     l417:
  3113                           
  3114                           ; BSR set to: 0
  3115                           ;../lib/handler_lib.c: 74:         if (packetsTX[i].free) {
  3116  00140E  51BF               	movf	QueueTXPacket@i& (0+255),w,b
  3117  001410  0D26               	mullw	38
  3118  001412  0E16               	movlw	low (_packetsTX+32)
  3119  001414  24F3               	addwf	243,w,c
  3120  001416  6ED9               	movwf	fsr2l,c
  3121  001418  0E01               	movlw	high (_packetsTX+32)
  3122  00141A  20F4               	addwfc	prodh,w,c
  3123  00141C  6EDA               	movwf	fsr2h,c
  3124  00141E  50DF               	movf	indf2,w,c
  3125  001420  B4D8               	btfsc	status,2,c
  3126  001422  EF15  F00A         	goto	u951
  3127  001426  EF17  F00A         	goto	u950
  3128  00142A                     u951:
  3129  00142A  EF19  F00A         	goto	l2491
  3130  00142E                     u950:
  3131  00142E  EF22  F00A         	goto	l2495
  3132  001432                     l2491:
  3133                           
  3134                           ; BSR set to: 0
  3135                           ;../lib/handler_lib.c: 77:     }
  3136  001432  2BBF               	incf	QueueTXPacket@i& (0+255),f,b
  3137  001434                     
  3138                           ; BSR set to: 0
  3139  001434  0E07               	movlw	7
  3140  001436  65BF               	cpfsgt	QueueTXPacket@i& (0+255),b
  3141  001438  EF20  F00A         	goto	u961
  3142  00143C  EF22  F00A         	goto	u960
  3143  001440                     u961:
  3144  001440  EFDE  F009         	goto	l2483
  3145  001444                     u960:
  3146  001444                     l2495:
  3147                           
  3148                           ; BSR set to: 0
  3149                           ;../lib/handler_lib.c: 79:     if (i == 8) {
  3150  001444  0E08               	movlw	8
  3151  001446  19BF               	xorwf	QueueTXPacket@i& (0+255),w,b
  3152  001448  A4D8               	btfss	status,2,c
  3153  00144A  EF29  F00A         	goto	u971
  3154  00144E  EF2B  F00A         	goto	u970
  3155  001452                     u971:
  3156  001452  EF2D  F00A         	goto	l2499
  3157  001456                     u970:
  3158  001456                     
  3159                           ; BSR set to: 0
  3160                           ;../lib/handler_lib.c: 80:         i = oldestPkt;
  3161  001456  C0BE  F0BF         	movff	QueueTXPacket@oldestPkt,QueueTXPacket@i
  3162  00145A                     l2499:
  3163                           
  3164                           ; BSR set to: 0
  3165                           ;../lib/handler_lib.c: 82:     packetsTX[i].free = 0;
  3166  00145A  51BF               	movf	QueueTXPacket@i& (0+255),w,b
  3167  00145C  0D26               	mullw	38
  3168  00145E  0E16               	movlw	low (_packetsTX+32)
  3169  001460  24F3               	addwf	243,w,c
  3170  001462  6ED9               	movwf	fsr2l,c
  3171  001464  0E01               	movlw	high (_packetsTX+32)
  3172  001466  20F4               	addwfc	prodh,w,c
  3173  001468  6EDA               	movwf	fsr2h,c
  3174  00146A  0E00               	movlw	0
  3175  00146C  6EDF               	movwf	indf2,c
  3176                           
  3177                           ;../lib/handler_lib.c: 83:     packetsTX[i].size = sz;
  3178  00146E  51BF               	movf	QueueTXPacket@i& (0+255),w,b
  3179  001470  0D26               	mullw	38
  3180  001472  0E17               	movlw	low (_packetsTX+33)
  3181  001474  24F3               	addwf	243,w,c
  3182  001476  6ED9               	movwf	fsr2l,c
  3183  001478  0E01               	movlw	high (_packetsTX+33)
  3184  00147A  20F4               	addwfc	prodh,w,c
  3185  00147C  6EDA               	movwf	fsr2h,c
  3186  00147E  C0B5  FFDF         	movff	QueueTXPacket@sz,indf2
  3187  001482                     
  3188                           ; BSR set to: 0
  3189                           ;../lib/handler_lib.c: 84:     memcpy(packetsTX[i].packet, buffer, sz);
  3190  001482  51BF               	movf	QueueTXPacket@i& (0+255),w,b
  3191  001484  0D26               	mullw	38
  3192  001486  0EF6               	movlw	low _packetsTX
  3193  001488  24F3               	addwf	243,w,c
  3194  00148A  6E21               	movwf	memcpy@d1^0,c
  3195  00148C  0E00               	movlw	high _packetsTX
  3196  00148E  20F4               	addwfc	prodh,w,c
  3197  001490  6E22               	movwf	(memcpy@d1+1)^0,c
  3198  001492  C0B3  F023         	movff	QueueTXPacket@buffer,memcpy@s1
  3199  001496  C0B4  F024         	movff	QueueTXPacket@buffer+1,memcpy@s1+1
  3200  00149A  C0B5  F025         	movff	QueueTXPacket@sz,memcpy@n
  3201  00149E  6A26               	clrf	(memcpy@n+1)^0,c
  3202  0014A0  EC87  F00D         	call	_memcpy	;wreg free
  3203  0014A4                     
  3204                           ;../lib/handler_lib.c: 85:     packetsTX[i].tmpstmp = Ticks;
  3205  0014A4  0100               	movlb	0	; () banked
  3206  0014A6  51BF               	movf	QueueTXPacket@i& (0+255),w,b
  3207  0014A8  0D26               	mullw	38
  3208  0014AA  0E18               	movlw	low (_packetsTX+34)
  3209  0014AC  24F3               	addwf	243,w,c
  3210  0014AE  6ED9               	movwf	fsr2l,c
  3211  0014B0  0E01               	movlw	high (_packetsTX+34)
  3212  0014B2  20F4               	addwfc	prodh,w,c
  3213  0014B4  6EDA               	movwf	fsr2h,c
  3214  0014B6  C03B  FFDE         	movff	_Ticks,postinc2
  3215  0014BA  C03C  FFDE         	movff	_Ticks+1,postinc2
  3216  0014BE  C03D  FFDE         	movff	_Ticks+2,postinc2
  3217  0014C2  C03E  FFDE         	movff	_Ticks+3,postinc2
  3218  0014C6                     
  3219                           ; BSR set to: 0
  3220  0014C6  0012               	return		;funcret
  3221  0014C8                     __end_of_QueueTXPacket:
  3222                           	callstack 0
  3223                           
  3224 ;; *************** function _ReloadConfig *****************
  3225 ;; Defined at:
  3226 ;;		line 187 in file "../lib/handler_lib.c"
  3227 ;; Parameters:    Size  Location     Type
  3228 ;;		None
  3229 ;; Auto vars:     Size  Location     Type
  3230 ;;  ard             1   43[COMRAM] unsigned char 
  3231 ;; Return value:  Size  Location     Type
  3232 ;;                  1    wreg      void 
  3233 ;; Registers used:
  3234 ;;		wreg, fsr2l, fsr2h, status,2, status,0, cstack
  3235 ;; Tracked objects:
  3236 ;;		On entry : 0/0
  3237 ;;		On exit  : 0/0
  3238 ;;		Unchanged: 0/0
  3239 ;; Data sizes:     COMRAM   BANK0   BANK1   BANK2   BANK3   BANK4   BANK5   BANK6   BANK7   BANK8   BANK9  BANK10  BANK1
      +1  BANK12  BANK13  BANK14  BANK15
  3240 ;;      Params:         0       0       0       0       0       0       0       0       0       0       0       0       
      +0       0       0       0       0
  3241 ;;      Locals:         1       0       0       0       0       0       0       0       0       0       0       0       
      +0       0       0       0       0
  3242 ;;      Temps:          0       0       0       0       0       0       0       0       0       0       0       0       
      +0       0       0       0       0
  3243 ;;      Totals:         1       0       0       0       0       0       0       0       0       0       0       0       
      +0       0       0       0       0
  3244 ;;Total ram usage:        1 bytes
  3245 ;; Hardware stack levels used: 1
  3246 ;; Hardware stack levels required when called: 8
  3247 ;; This function calls:
  3248 ;;		_memcpy
  3249 ;;		_nrf24_write_buff
  3250 ;;		_nrf24_write_register
  3251 ;; This function is called by:
  3252 ;;		_ProcessActionRequest
  3253 ;; This function uses a non-reentrant model
  3254 ;;
  3255                           
  3256                           	psect	text25
  3257  001946                     __ptext25:
  3258                           	callstack 0
  3259  001946                     _ReloadConfig:
  3260                           	callstack 19
  3261  001946                     
  3262                           ;../lib/handler_lib.c: 188:     config.IsConfigured = 1;
  3263  001946  0E01               	movlw	1
  3264  001948  0100               	movlb	0	; () banked
  3265  00194A  6FA2               	movwf	_config& (0+255),b
  3266  00194C                     
  3267                           ; BSR set to: 0
  3268                           ;../lib/handler_lib.c: 189:     nrf24_write_register(0x05, config.RFChannel);
  3269  00194C  C0A7  F022         	movff	_config+5,nrf24_write_register@value
  3270  001950  0E05               	movlw	5
  3271  001952  EC2E  F00C         	call	_nrf24_write_register
  3272  001956                     
  3273                           ;../lib/handler_lib.c: 191:     nrf24_write_buff(0x10, config.PipeAddr1, 5);
  3274  001956  0EA8               	movlw	low (_config+6)
  3275  001958  6E22               	movwf	nrf24_write_buff@buffer^0,c
  3276  00195A  0E00               	movlw	high (_config+6)
  3277  00195C  6E23               	movwf	(nrf24_write_buff@buffer+1)^0,c
  3278  00195E  0E05               	movlw	5
  3279  001960  6E24               	movwf	nrf24_write_buff@bytes^0,c
  3280  001962  0E10               	movlw	16
  3281  001964  EC48  F00E         	call	_nrf24_write_buff
  3282  001968                     
  3283                           ;../lib/handler_lib.c: 192:     nrf24_write_buff(0x0A, config.PipeAddr1, 5);
  3284  001968  0EA8               	movlw	low (_config+6)
  3285  00196A  6E22               	movwf	nrf24_write_buff@buffer^0,c
  3286  00196C  0E00               	movlw	high (_config+6)
  3287  00196E  6E23               	movwf	(nrf24_write_buff@buffer+1)^0,c
  3288  001970  0E05               	movlw	5
  3289  001972  6E24               	movwf	nrf24_write_buff@bytes^0,c
  3290  001974  0E0A               	movlw	10
  3291  001976  EC48  F00E         	call	_nrf24_write_buff
  3292  00197A                     
  3293                           ;../lib/handler_lib.c: 194:     uint8_t ard = (config.ARD << 4) | 0xF;
  3294  00197A  0100               	movlb	0	; () banked
  3295  00197C  39B2               	swapf	(_config+16)& (0+255),w,b
  3296  00197E  0BF0               	andlw	240
  3297  001980  090F               	iorlw	15
  3298  001982  6E2C               	movwf	ReloadConfig@ard^0,c
  3299  001984                     
  3300                           ; BSR set to: 0
  3301                           ;../lib/handler_lib.c: 195:     nrf24_write_register(0x04, ard);
  3302  001984  C02C  F022         	movff	ReloadConfig@ard,nrf24_write_register@value
  3303  001988  0E04               	movlw	4
  3304  00198A  EC2E  F00C         	call	_nrf24_write_register
  3305  00198E                     
  3306                           ;../lib/handler_lib.c: 197:     memcpy(BoardAddress, config.Address, 3);
  3307  00198E  0E34               	movlw	low _BoardAddress
  3308  001990  6E21               	movwf	memcpy@d1^0,c
  3309  001992  0E00               	movlw	high _BoardAddress
  3310  001994  6E22               	movwf	(memcpy@d1+1)^0,c
  3311  001996  0EA3               	movlw	low (_config+1)
  3312  001998  6E23               	movwf	memcpy@s1^0,c
  3313  00199A  0E00               	movlw	high (_config+1)
  3314  00199C  6E24               	movwf	(memcpy@s1+1)^0,c
  3315  00199E  0E00               	movlw	0
  3316  0019A0  6E26               	movwf	(memcpy@n+1)^0,c
  3317  0019A2  0E03               	movlw	3
  3318  0019A4  6E25               	movwf	memcpy@n^0,c
  3319  0019A6  EC87  F00D         	call	_memcpy	;wreg free
  3320  0019AA                     
  3321                           ;../lib/handler_lib.c: 198:     PingInterval = config.PingInterval;
  3322  0019AA  C0A6  F02D         	movff	_config+4,_PingInterval
  3323  0019AE  0012               	return		;funcret
  3324  0019B0                     __end_of_ReloadConfig:
  3325                           	callstack 0
  3326                           
  3327 ;; *************** function _nrf24_write_register *****************
  3328 ;; Defined at:
  3329 ;;		line 8 in file "../lib/nrf24_lib.c"
  3330 ;; Parameters:    Size  Location     Type
  3331 ;;  mnemonic_add    1    wreg     unsigned char 
  3332 ;;  value           1   33[COMRAM] unsigned char 
  3333 ;; Auto vars:     Size  Location     Type
  3334 ;;  mnemonic_add    1   34[COMRAM] unsigned char 
  3335 ;; Return value:  Size  Location     Type
  3336 ;;                  1    wreg      void 
  3337 ;; Registers used:
  3338 ;;		wreg, status,2, status,0, cstack
  3339 ;; Tracked objects:
  3340 ;;		On entry : 0/0
  3341 ;;		On exit  : 0/0
  3342 ;;		Unchanged: 0/0
  3343 ;; Data sizes:     COMRAM   BANK0   BANK1   BANK2   BANK3   BANK4   BANK5   BANK6   BANK7   BANK8   BANK9  BANK10  BANK1
      +1  BANK12  BANK13  BANK14  BANK15
  3344 ;;      Params:         1       0       0       0       0       0       0       0       0       0       0       0       
      +0       0       0       0       0
  3345 ;;      Locals:         1       0       0       0       0       0       0       0       0       0       0       0       
      +0       0       0       0       0
  3346 ;;      Temps:          0       0       0       0       0       0       0       0       0       0       0       0       
      +0       0       0       0       0
  3347 ;;      Totals:         2       0       0       0       0       0       0       0       0       0       0       0       
      +0       0       0       0       0
  3348 ;;Total ram usage:        2 bytes
  3349 ;; Hardware stack levels used: 1
  3350 ;; Hardware stack levels required when called: 7
  3351 ;; This function calls:
  3352 ;;		_SPI1_ExchangeByte
  3353 ;; This function is called by:
  3354 ;;		_nrf24_read_rf_data
  3355 ;;		_nrf24_flush_tx_rx
  3356 ;;		_InitRadio
  3357 ;;		_HandlePacketLoop
  3358 ;;		_ReloadConfig
  3359 ;; This function uses a non-reentrant model
  3360 ;;
  3361                           
  3362                           	psect	text26
  3363  00185C                     __ptext26:
  3364                           	callstack 0
  3365  00185C                     _nrf24_write_register:
  3366                           	callstack 22
  3367                           
  3368                           ;incstack = 0
  3369                           ;nrf24_write_register@mnemonic_addr stored from wreg
  3370  00185C  6E23               	movwf	nrf24_write_register@mnemonic_addr^0,c
  3371  00185E  928B               	bcf	139,1,c	;volatile
  3372  001860                     
  3373                           ;../lib/nrf24_lib.c: 10:     if (mnemonic_addr < 0x20) {
  3374  001860  0E20               	movlw	32
  3375  001862  6023               	cpfslt	nrf24_write_register@mnemonic_addr^0,c
  3376  001864  EF36  F00C         	goto	u501
  3377  001868  EF38  F00C         	goto	u500
  3378  00186C                     u501:
  3379  00186C  EF42  F00C         	goto	l1859
  3380  001870                     u500:
  3381  001870                     
  3382                           ;../lib/nrf24_lib.c: 12:         SPI1_ExchangeByte(0x20 | (mnemonic_addr & 0x1F));
  3383  001870  5023               	movf	nrf24_write_register@mnemonic_addr^0,w,c
  3384  001872  0B1F               	andlw	31
  3385  001874  0920               	iorlw	32
  3386  001876  EC3F  F00F         	call	_SPI1_ExchangeByte
  3387  00187A                     
  3388                           ;../lib/nrf24_lib.c: 13:         SPI1_ExchangeByte(value);
  3389  00187A  5022               	movf	nrf24_write_register@value^0,w,c
  3390  00187C  EC3F  F00F         	call	_SPI1_ExchangeByte
  3391                           
  3392                           ;../lib/nrf24_lib.c: 14:     } else {
  3393  001880  EF6B  F00C         	goto	l1871
  3394  001884                     l1859:
  3395                           
  3396                           ;../lib/nrf24_lib.c: 16:         SPI1_ExchangeByte(mnemonic_addr);
  3397  001884  5023               	movf	nrf24_write_register@mnemonic_addr^0,w,c
  3398  001886  EC3F  F00F         	call	_SPI1_ExchangeByte
  3399  00188A                     
  3400                           ;../lib/nrf24_lib.c: 17:         if ((mnemonic_addr != 0xE1) && (mnemonic_addr != 0xE2) 
      +                          && (mnemonic_addr != 0xE3) && (mnemonic_addr != 0xFF)) {
  3401  00188A  0EE1               	movlw	225
  3402  00188C  1823               	xorwf	nrf24_write_register@mnemonic_addr^0,w,c
  3403  00188E  B4D8               	btfsc	status,2,c
  3404  001890  EF4C  F00C         	goto	u511
  3405  001894  EF4E  F00C         	goto	u510
  3406  001898                     u511:
  3407  001898  EF6B  F00C         	goto	l1871
  3408  00189C                     u510:
  3409  00189C  0EE2               	movlw	226
  3410  00189E  1823               	xorwf	nrf24_write_register@mnemonic_addr^0,w,c
  3411  0018A0  B4D8               	btfsc	status,2,c
  3412  0018A2  EF55  F00C         	goto	u521
  3413  0018A6  EF57  F00C         	goto	u520
  3414  0018AA                     u521:
  3415  0018AA  EF6B  F00C         	goto	l1871
  3416  0018AE                     u520:
  3417  0018AE  0EE3               	movlw	227
  3418  0018B0  1823               	xorwf	nrf24_write_register@mnemonic_addr^0,w,c
  3419  0018B2  B4D8               	btfsc	status,2,c
  3420  0018B4  EF5E  F00C         	goto	u531
  3421  0018B8  EF60  F00C         	goto	u530
  3422  0018BC                     u531:
  3423  0018BC  EF6B  F00C         	goto	l1871
  3424  0018C0                     u530:
  3425  0018C0  2823               	incf	nrf24_write_register@mnemonic_addr^0,w,c
  3426  0018C2  B4D8               	btfsc	status,2,c
  3427  0018C4  EF66  F00C         	goto	u541
  3428  0018C8  EF68  F00C         	goto	u540
  3429  0018CC                     u541:
  3430  0018CC  EF6B  F00C         	goto	l1871
  3431  0018D0                     u540:
  3432  0018D0                     
  3433                           ;../lib/nrf24_lib.c: 18: ;../lib/nrf24_lib.c: 20:             SPI1_ExchangeByte(value);
  3434  0018D0  5022               	movf	nrf24_write_register@value^0,w,c
  3435  0018D2  EC3F  F00F         	call	_SPI1_ExchangeByte
  3436  0018D6                     l1871:
  3437                           
  3438                           ;../lib/nrf24_lib.c: 23:     _delay((unsigned long)((10)*(1000000/4000000.0)));
  3439  0018D6  D000               	nop2		;2 cycle nop
  3440  0018D8  828B               	bsf	139,1,c	;volatile
  3441  0018DA  0012               	return		;funcret
  3442  0018DC                     __end_of_nrf24_write_register:
  3443                           	callstack 0
  3444                           
  3445 ;; *************** function _nrf24_write_buff *****************
  3446 ;; Defined at:
  3447 ;;		line 46 in file "../lib/nrf24_lib.c"
  3448 ;; Parameters:    Size  Location     Type
  3449 ;;  mnemonic_add    1    wreg     unsigned char 
  3450 ;;  buffer          2   33[COMRAM] PTR unsigned char 
  3451 ;;		 -> packetsTX(304), config(17), DEFAULT_PIPE_ADDR(6), 
  3452 ;;  bytes           1   35[COMRAM] unsigned char 
  3453 ;; Auto vars:     Size  Location     Type
  3454 ;;  mnemonic_add    1   36[COMRAM] unsigned char 
  3455 ;;  i               1   37[COMRAM] unsigned char 
  3456 ;; Return value:  Size  Location     Type
  3457 ;;                  1    wreg      void 
  3458 ;; Registers used:
  3459 ;;		wreg, fsr2l, fsr2h, status,2, status,0, cstack
  3460 ;; Tracked objects:
  3461 ;;		On entry : 0/0
  3462 ;;		On exit  : 0/0
  3463 ;;		Unchanged: 0/0
  3464 ;; Data sizes:     COMRAM   BANK0   BANK1   BANK2   BANK3   BANK4   BANK5   BANK6   BANK7   BANK8   BANK9  BANK10  BANK1
      +1  BANK12  BANK13  BANK14  BANK15
  3465 ;;      Params:         3       0       0       0       0       0       0       0       0       0       0       0       
      +0       0       0       0       0
  3466 ;;      Locals:         2       0       0       0       0       0       0       0       0       0       0       0       
      +0       0       0       0       0
  3467 ;;      Temps:          0       0       0       0       0       0       0       0       0       0       0       0       
      +0       0       0       0       0
  3468 ;;      Totals:         5       0       0       0       0       0       0       0       0       0       0       0       
      +0       0       0       0       0
  3469 ;;Total ram usage:        5 bytes
  3470 ;; Hardware stack levels used: 1
  3471 ;; Hardware stack levels required when called: 7
  3472 ;; This function calls:
  3473 ;;		_SPI1_ExchangeByte
  3474 ;; This function is called by:
  3475 ;;		_nrf24_send_rf_data
  3476 ;;		_InitRadio
  3477 ;;		_ReloadConfig
  3478 ;; This function uses a non-reentrant model
  3479 ;;
  3480                           
  3481                           	psect	text27
  3482  001C90                     __ptext27:
  3483                           	callstack 0
  3484  001C90                     _nrf24_write_buff:
  3485                           	callstack 22
  3486                           
  3487                           ;incstack = 0
  3488                           ;nrf24_write_buff@mnemonic_addr stored from wreg
  3489  001C90  6E25               	movwf	nrf24_write_buff@mnemonic_addr^0,c
  3490  001C92  928B               	bcf	139,1,c	;volatile
  3491  001C94                     
  3492                           ;../lib/nrf24_lib.c: 49:     SPI1_ExchangeByte(0x20 | mnemonic_addr);
  3493  001C94  5025               	movf	nrf24_write_buff@mnemonic_addr^0,w,c
  3494  001C96  0920               	iorlw	32
  3495  001C98  EC3F  F00F         	call	_SPI1_ExchangeByte
  3496  001C9C                     
  3497                           ;../lib/nrf24_lib.c: 50:     for (i = 0; i < bytes; i++) {
  3498  001C9C  0E00               	movlw	0
  3499  001C9E  6E26               	movwf	nrf24_write_buff@i^0,c
  3500  001CA0  EF5D  F00E         	goto	l1887
  3501  001CA4                     l1879:
  3502                           
  3503                           ;../lib/nrf24_lib.c: 51:         SPI1_ExchangeByte(*buffer);
  3504  001CA4  C022  FFD9         	movff	nrf24_write_buff@buffer,fsr2l
  3505  001CA8  C023  FFDA         	movff	nrf24_write_buff@buffer+1,fsr2h
  3506  001CAC  50DF               	movf	indf2,w,c
  3507  001CAE  EC3F  F00F         	call	_SPI1_ExchangeByte
  3508  001CB2                     
  3509                           ;../lib/nrf24_lib.c: 52:         buffer++;
  3510  001CB2  4A22               	infsnz	nrf24_write_buff@buffer^0,f,c
  3511  001CB4  2A23               	incf	(nrf24_write_buff@buffer+1)^0,f,c
  3512  001CB6                     
  3513                           ;../lib/nrf24_lib.c: 53:         _delay((unsigned long)((10)*(1000000/4000000.0)));
  3514  001CB6  D000               	nop2		;2 cycle nop
  3515  001CB8                     
  3516                           ;../lib/nrf24_lib.c: 54:     }
  3517  001CB8  2A26               	incf	nrf24_write_buff@i^0,f,c
  3518  001CBA                     l1887:
  3519  001CBA  5024               	movf	nrf24_write_buff@bytes^0,w,c
  3520  001CBC  5C26               	subwf	nrf24_write_buff@i^0,w,c
  3521  001CBE  A0D8               	btfss	status,0,c
  3522  001CC0  EF64  F00E         	goto	u551
  3523  001CC4  EF66  F00E         	goto	u550
  3524  001CC8                     u551:
  3525  001CC8  EF52  F00E         	goto	l1879
  3526  001CCC                     u550:
  3527  001CCC  828B               	bsf	139,1,c	;volatile
  3528  001CCE  0012               	return		;funcret
  3529  001CD0                     __end_of_nrf24_write_buff:
  3530                           	callstack 0
  3531                           
  3532 ;; *************** function _SPI1_ExchangeByte *****************
  3533 ;; Defined at:
  3534 ;;		line 92 in file "mcc_generated_files/spi1.c"
  3535 ;; Parameters:    Size  Location     Type
  3536 ;;  data            1    wreg     unsigned char 
  3537 ;; Auto vars:     Size  Location     Type
  3538 ;;  data            1   32[COMRAM] unsigned char 
  3539 ;; Return value:  Size  Location     Type
  3540 ;;                  1    wreg      unsigned char 
  3541 ;; Registers used:
  3542 ;;		wreg, status,2
  3543 ;; Tracked objects:
  3544 ;;		On entry : 0/0
  3545 ;;		On exit  : 0/0
  3546 ;;		Unchanged: 0/0
  3547 ;; Data sizes:     COMRAM   BANK0   BANK1   BANK2   BANK3   BANK4   BANK5   BANK6   BANK7   BANK8   BANK9  BANK10  BANK1
      +1  BANK12  BANK13  BANK14  BANK15
  3548 ;;      Params:         0       0       0       0       0       0       0       0       0       0       0       0       
      +0       0       0       0       0
  3549 ;;      Locals:         1       0       0       0       0       0       0       0       0       0       0       0       
      +0       0       0       0       0
  3550 ;;      Temps:          0       0       0       0       0       0       0       0       0       0       0       0       
      +0       0       0       0       0
  3551 ;;      Totals:         1       0       0       0       0       0       0       0       0       0       0       0       
      +0       0       0       0       0
  3552 ;;Total ram usage:        1 bytes
  3553 ;; Hardware stack levels used: 1
  3554 ;; Hardware stack levels required when called: 6
  3555 ;; This function calls:
  3556 ;;		Nothing
  3557 ;; This function is called by:
  3558 ;;		_nrf24_write_register
  3559 ;;		_nrf24_read_register
  3560 ;;		_nrf24_read_dynamic_payload_length
  3561 ;;		_nrf24_write_buff
  3562 ;;		_nrf24_read_buff
  3563 ;;		_nrf24_flush_tx_rx
  3564 ;;		_SPI1_WriteBlock
  3565 ;;		_SPI1_ReadBlock
  3566 ;; This function uses a non-reentrant model
  3567 ;;
  3568                           
  3569                           	psect	text28
  3570  001E7E                     __ptext28:
  3571                           	callstack 0
  3572  001E7E                     _SPI1_ExchangeByte:
  3573                           	callstack 22
  3574                           
  3575                           ;incstack = 0
  3576                           ;SPI1_ExchangeByte@data stored from wreg
  3577  001E7E  6E21               	movwf	SPI1_ExchangeByte@data^0,c
  3578  001E80                     
  3579                           ;mcc_generated_files/spi1.c: 92: uint8_t SPI1_ExchangeByte(uint8_t data);mcc_generated_f
      +                          iles/spi1.c: 93: {;mcc_generated_files/spi1.c: 94:     SSP1BUF = data;
  3580  001E80  C021  FFC9         	movff	SPI1_ExchangeByte@data,4041	;volatile
  3581  001E84                     l61:
  3582  001E84  A69E               	btfss	158,3,c	;volatile
  3583  001E86  EF47  F00F         	goto	u481
  3584  001E8A  EF49  F00F         	goto	u480
  3585  001E8E                     u481:
  3586  001E8E  EF42  F00F         	goto	l61
  3587  001E92                     u480:
  3588  001E92                     
  3589                           ;mcc_generated_files/spi1.c: 96:     PIR1bits.SSP1IF = 0;
  3590  001E92  969E               	bcf	158,3,c	;volatile
  3591                           
  3592                           ;mcc_generated_files/spi1.c: 97:     return SSP1BUF;
  3593  001E94  50C9               	movf	201,w,c	;volatile
  3594  001E96  0012               	return		;funcret
  3595  001E98                     __end_of_SPI1_ExchangeByte:
  3596                           	callstack 0
  3597                           
  3598 ;; *************** function _memcpy *****************
  3599 ;; Defined at:
  3600 ;;		line 4 in file "/Applications/microchip/xc8/v2.36/pic/sources/c99/common/memcpy.c"
  3601 ;; Parameters:    Size  Location     Type
  3602 ;;  d1              2   32[COMRAM] PTR void 
  3603 ;;		 -> packetsTX(304), BoardAddress(3), config(17), 
  3604 ;;  s1              2   34[COMRAM] PTR const void 
  3605 ;;		 -> bufferTX(32), config.Address(3), BoardAddress(3), config(17), 
  3606 ;;		 -> DEFAULT_PIPE_ADDR(6), 
  3607 ;;  n               2   36[COMRAM] unsigned int 
  3608 ;; Auto vars:     Size  Location     Type
  3609 ;;  s               2   41[COMRAM] PTR const unsigned char 
  3610 ;;		 -> bufferTX(32), config.Address(3), BoardAddress(3), config(17), 
  3611 ;;		 -> DEFAULT_PIPE_ADDR(6), 
  3612 ;;  d               2   39[COMRAM] PTR unsigned char 
  3613 ;;		 -> packetsTX(304), BoardAddress(3), config(17), 
  3614 ;;  tmp             1   38[COMRAM] unsigned char 
  3615 ;; Return value:  Size  Location     Type
  3616 ;;                  2   32[COMRAM] PTR void 
  3617 ;; Registers used:
  3618 ;;		wreg, fsr2l, fsr2h, status,2, status,0
  3619 ;; Tracked objects:
  3620 ;;		On entry : 0/0
  3621 ;;		On exit  : 0/0
  3622 ;;		Unchanged: 0/0
  3623 ;; Data sizes:     COMRAM   BANK0   BANK1   BANK2   BANK3   BANK4   BANK5   BANK6   BANK7   BANK8   BANK9  BANK10  BANK1
      +1  BANK12  BANK13  BANK14  BANK15
  3624 ;;      Params:         6       0       0       0       0       0       0       0       0       0       0       0       
      +0       0       0       0       0
  3625 ;;      Locals:         5       0       0       0       0       0       0       0       0       0       0       0       
      +0       0       0       0       0
  3626 ;;      Temps:          0       0       0       0       0       0       0       0       0       0       0       0       
      +0       0       0       0       0
  3627 ;;      Totals:        11       0       0       0       0       0       0       0       0       0       0       0       
      +0       0       0       0       0
  3628 ;;Total ram usage:       11 bytes
  3629 ;; Hardware stack levels used: 1
  3630 ;; Hardware stack levels required when called: 6
  3631 ;; This function calls:
  3632 ;;		Nothing
  3633 ;; This function is called by:
  3634 ;;		_InitRadio
  3635 ;;		_QueueTXPacket
  3636 ;;		_ReloadConfig
  3637 ;; This function uses a non-reentrant model
  3638 ;;
  3639                           
  3640                           	psect	text29
  3641  001B0E                     __ptext29:
  3642                           	callstack 0
  3643  001B0E                     _memcpy:
  3644                           	callstack 23
  3645  001B0E  C023  F02A         	movff	memcpy@s1,memcpy@s
  3646  001B12  C024  F02B         	movff	memcpy@s1+1,memcpy@s+1
  3647  001B16  C021  F028         	movff	memcpy@d1,memcpy@d
  3648  001B1A  C022  F029         	movff	memcpy@d1+1,memcpy@d+1
  3649  001B1E  EFA1  F00D         	goto	l2473
  3650  001B22                     l2465:
  3651  001B22  C02A  FFD9         	movff	memcpy@s,fsr2l
  3652  001B26  C02B  FFDA         	movff	memcpy@s+1,fsr2h
  3653  001B2A  50DF               	movf	indf2,w,c
  3654  001B2C  6E27               	movwf	memcpy@tmp^0,c
  3655  001B2E  4A2A               	infsnz	memcpy@s^0,f,c
  3656  001B30  2A2B               	incf	(memcpy@s+1)^0,f,c
  3657  001B32  C028  FFD9         	movff	memcpy@d,fsr2l
  3658  001B36  C029  FFDA         	movff	memcpy@d+1,fsr2h
  3659  001B3A  C027  FFDF         	movff	memcpy@tmp,indf2
  3660  001B3E  4A28               	infsnz	memcpy@d^0,f,c
  3661  001B40  2A29               	incf	(memcpy@d+1)^0,f,c
  3662  001B42                     l2473:
  3663  001B42  0625               	decf	memcpy@n^0,f,c
  3664  001B44  A0D8               	btfss	status,0,c
  3665  001B46  0626               	decf	(memcpy@n+1)^0,f,c
  3666  001B48  2825               	incf	memcpy@n^0,w,c
  3667  001B4A  E106               	bnz	u931
  3668  001B4C  2826               	incf	(memcpy@n+1)^0,w,c
  3669  001B4E  A4D8               	btfss	status,2,c
  3670  001B50  EFAC  F00D         	goto	u931
  3671  001B54  EFAE  F00D         	goto	u930
  3672  001B58                     u931:
  3673  001B58  EF91  F00D         	goto	l2465
  3674  001B5C                     u930:
  3675  001B5C  0012               	return		;funcret
  3676  001B5E                     __end_of_memcpy:
  3677                           	callstack 0
  3678                           
  3679 ;; *************** function _GetMockTempHumidity *****************
  3680 ;; Defined at:
  3681 ;;		line 11 in file "../lib/dht11_lib.c"
  3682 ;; Parameters:    Size  Location     Type
  3683 ;;  temp            2   32[COMRAM] PTR unsigned char 
  3684 ;;		 -> ProcessActionRequest@tmpHumidity(2), 
  3685 ;; Auto vars:     Size  Location     Type
  3686 ;;		None
  3687 ;; Return value:  Size  Location     Type
  3688 ;;                  1    wreg      unsigned char 
  3689 ;; Registers used:
  3690 ;;		wreg, fsr2l, fsr2h, status,2, status,0
  3691 ;; Tracked objects:
  3692 ;;		On entry : 0/0
  3693 ;;		On exit  : 0/0
  3694 ;;		Unchanged: 0/0
  3695 ;; Data sizes:     COMRAM   BANK0   BANK1   BANK2   BANK3   BANK4   BANK5   BANK6   BANK7   BANK8   BANK9  BANK10  BANK1
      +1  BANK12  BANK13  BANK14  BANK15
  3696 ;;      Params:         2       0       0       0       0       0       0       0       0       0       0       0       
      +0       0       0       0       0
  3697 ;;      Locals:         0       0       0       0       0       0       0       0       0       0       0       0       
      +0       0       0       0       0
  3698 ;;      Temps:          0       0       0       0       0       0       0       0       0       0       0       0       
      +0       0       0       0       0
  3699 ;;      Totals:         2       0       0       0       0       0       0       0       0       0       0       0       
      +0       0       0       0       0
  3700 ;;Total ram usage:        2 bytes
  3701 ;; Hardware stack levels used: 1
  3702 ;; Hardware stack levels required when called: 6
  3703 ;; This function calls:
  3704 ;;		Nothing
  3705 ;; This function is called by:
  3706 ;;		_ProcessActionRequest
  3707 ;; This function uses a non-reentrant model
  3708 ;;
  3709                           
  3710                           	psect	text30
  3711  001E46                     __ptext30:
  3712                           	callstack 0
  3713  001E46                     _GetMockTempHumidity:
  3714                           	callstack 21
  3715  001E46                     
  3716                           ;../lib/dht11_lib.c: 12:     temp[0] = 35;
  3717  001E46  C021  FFD9         	movff	GetMockTempHumidity@temp,fsr2l
  3718  001E4A  C022  FFDA         	movff	GetMockTempHumidity@temp+1,fsr2h
  3719  001E4E  0E23               	movlw	35
  3720  001E50  6EDF               	movwf	indf2,c
  3721  001E52                     
  3722                           ;../lib/dht11_lib.c: 13:     temp[1] = 40;
  3723  001E52  EE20 F001          	lfsr	2,1
  3724  001E56  5021               	movf	GetMockTempHumidity@temp^0,w,c
  3725  001E58  26D9               	addwf	fsr2l,f,c
  3726  001E5A  5022               	movf	(GetMockTempHumidity@temp+1)^0,w,c
  3727  001E5C  22DA               	addwfc	fsr2h,f,c
  3728  001E5E  0E28               	movlw	40
  3729  001E60  6EDF               	movwf	indf2,c
  3730  001E62  0012               	return		;funcret
  3731  001E64                     __end_of_GetMockTempHumidity:
  3732                           	callstack 0
  3733                           
  3734 ;; *************** function _INTERRUPT_InterruptManager *****************
  3735 ;; Defined at:
  3736 ;;		line 58 in file "mcc_generated_files/interrupt_manager.c"
  3737 ;; Parameters:    Size  Location     Type
  3738 ;;		None
  3739 ;; Auto vars:     Size  Location     Type
  3740 ;;		None
  3741 ;; Return value:  Size  Location     Type
  3742 ;;                  1    wreg      void 
  3743 ;; Registers used:
  3744 ;;		wreg, fsr1l, fsr1h, fsr2l, fsr2h, status,2, status,0, pcl, pclath, pclatu, tosl, prodl, prodh, cstack
  3745 ;; Tracked objects:
  3746 ;;		On entry : 0/0
  3747 ;;		On exit  : 0/0
  3748 ;;		Unchanged: 0/0
  3749 ;; Data sizes:     COMRAM   BANK0   BANK1   BANK2   BANK3   BANK4   BANK5   BANK6   BANK7   BANK8   BANK9  BANK10  BANK1
      +1  BANK12  BANK13  BANK14  BANK15
  3750 ;;      Params:         0       0       0       0       0       0       0       0       0       0       0       0       
      +0       0       0       0       0
  3751 ;;      Locals:         0       0       0       0       0       0       0       0       0       0       0       0       
      +0       0       0       0       0
  3752 ;;      Temps:          8       0       0       0       0       0       0       0       0       0       0       0       
      +0       0       0       0       0
  3753 ;;      Totals:         8       0       0       0       0       0       0       0       0       0       0       0       
      +0       0       0       0       0
  3754 ;;Total ram usage:        8 bytes
  3755 ;; Hardware stack levels used: 1
  3756 ;; Hardware stack levels required when called: 5
  3757 ;; This function calls:
  3758 ;;		_TMR1_ISR
  3759 ;; This function is called by:
  3760 ;;		Interrupt level 2
  3761 ;; This function uses a non-reentrant model
  3762 ;;
  3763                           
  3764                           	psect	intcode
  3765  000008                     __pintcode:
  3766                           	callstack 0
  3767  000008                     _INTERRUPT_InterruptManager:
  3768                           	callstack 19
  3769                           
  3770                           ;incstack = 0
  3771  000008  823F               	bsf	int$flags,1,c	;set compiler interrupt flag (level 2)
  3772  00000A  CFFA F019          	movff	pclath,??_INTERRUPT_InterruptManager
  3773  00000E  CFFB F01A          	movff	pclatu,??_INTERRUPT_InterruptManager+1
  3774  000012  CFE1 F01B          	movff	fsr1l,??_INTERRUPT_InterruptManager+2
  3775  000016  CFE2 F01C          	movff	fsr1h,??_INTERRUPT_InterruptManager+3
  3776  00001A  CFD9 F01D          	movff	fsr2l,??_INTERRUPT_InterruptManager+4
  3777  00001E  CFDA F01E          	movff	fsr2h,??_INTERRUPT_InterruptManager+5
  3778  000022  CFF3 F01F          	movff	prodl,??_INTERRUPT_InterruptManager+6
  3779  000026  CFF4 F020          	movff	prodh,??_INTERRUPT_InterruptManager+7
  3780  00002A                     
  3781                           ;mcc_generated_files/interrupt_manager.c: 61:     if(INTCONbits.PEIE == 1)
  3782  00002A  ACF2               	btfss	242,6,c	;volatile
  3783  00002C  EF1A  F000         	goto	i2u90_41
  3784  000030  EF1C  F000         	goto	i2u90_40
  3785  000034                     i2u90_41:
  3786  000034  EF2C  F000         	goto	i2l197
  3787  000038                     i2u90_40:
  3788  000038                     
  3789                           ;mcc_generated_files/interrupt_manager.c: 62:     {;mcc_generated_files/interrupt_manage
      +                          r.c: 63:         if(PIE1bits.TMR1IE == 1 && PIR1bits.TMR1IF == 1)
  3790  000038  A09D               	btfss	157,0,c	;volatile
  3791  00003A  EF21  F000         	goto	i2u91_41
  3792  00003E  EF23  F000         	goto	i2u91_40
  3793  000042                     i2u91_41:
  3794  000042  EF2C  F000         	goto	i2l197
  3795  000046                     i2u91_40:
  3796  000046  A09E               	btfss	158,0,c	;volatile
  3797  000048  EF28  F000         	goto	i2u92_41
  3798  00004C  EF2A  F000         	goto	i2u92_40
  3799  000050                     i2u92_41:
  3800  000050  EF2C  F000         	goto	i2l197
  3801  000054                     i2u92_40:
  3802  000054                     
  3803                           ;mcc_generated_files/interrupt_manager.c: 64:         {;mcc_generated_files/interrupt_ma
      +                          nager.c: 65:             TMR1_ISR();
  3804  000054  EC68  F00E         	call	_TMR1_ISR	;wreg free
  3805  000058                     i2l197:
  3806  000058  C020  FFF4         	movff	??_INTERRUPT_InterruptManager+7,prodh
  3807  00005C  C01F  FFF3         	movff	??_INTERRUPT_InterruptManager+6,prodl
  3808  000060  C01E  FFDA         	movff	??_INTERRUPT_InterruptManager+5,fsr2h
  3809  000064  C01D  FFD9         	movff	??_INTERRUPT_InterruptManager+4,fsr2l
  3810  000068  C01C  FFE2         	movff	??_INTERRUPT_InterruptManager+3,fsr1h
  3811  00006C  C01B  FFE1         	movff	??_INTERRUPT_InterruptManager+2,fsr1l
  3812  000070  C01A  FFFB         	movff	??_INTERRUPT_InterruptManager+1,pclatu
  3813  000074  C019  FFFA         	movff	??_INTERRUPT_InterruptManager,pclath
  3814  000078  923F               	bcf	int$flags,1,c	;clear compiler interrupt flag (level 2)
  3815  00007A  0011               	retfie		f
  3816  00007C                     __end_of_INTERRUPT_InterruptManager:
  3817                           	callstack 0
  3818                           
  3819 ;; *************** function _TMR1_ISR *****************
  3820 ;; Defined at:
  3821 ;;		line 158 in file "mcc_generated_files/tmr1.c"
  3822 ;; Parameters:    Size  Location     Type
  3823 ;;		None
  3824 ;; Auto vars:     Size  Location     Type
  3825 ;;		None
  3826 ;; Return value:  Size  Location     Type
  3827 ;;                  1    wreg      void 
  3828 ;; Registers used:
  3829 ;;		wreg, fsr1l, fsr1h, fsr2l, fsr2h, status,2, status,0, pcl, pclath, pclatu, tosl, prodl, prodh, cstack
  3830 ;; Tracked objects:
  3831 ;;		On entry : 0/0
  3832 ;;		On exit  : 0/0
  3833 ;;		Unchanged: 0/0
  3834 ;; Data sizes:     COMRAM   BANK0   BANK1   BANK2   BANK3   BANK4   BANK5   BANK6   BANK7   BANK8   BANK9  BANK10  BANK1
      +1  BANK12  BANK13  BANK14  BANK15
  3835 ;;      Params:         0       0       0       0       0       0       0       0       0       0       0       0       
      +0       0       0       0       0
  3836 ;;      Locals:         0       0       0       0       0       0       0       0       0       0       0       0       
      +0       0       0       0       0
  3837 ;;      Temps:          0       0       0       0       0       0       0       0       0       0       0       0       
      +0       0       0       0       0
  3838 ;;      Totals:         0       0       0       0       0       0       0       0       0       0       0       0       
      +0       0       0       0       0
  3839 ;;Total ram usage:        0 bytes
  3840 ;; Hardware stack levels used: 1
  3841 ;; Hardware stack levels required when called: 4
  3842 ;; This function calls:
  3843 ;;		Absolute function
  3844 ;;		_TMR1_DefaultInterruptHandler
  3845 ;;		_TMR1_WriteTimer
  3846 ;;		_TimerInterruptHandler
  3847 ;; This function is called by:
  3848 ;;		_INTERRUPT_InterruptManager
  3849 ;; This function uses a non-reentrant model
  3850 ;;
  3851                           
  3852                           	psect	text32
  3853  001CD0                     __ptext32:
  3854                           	callstack 0
  3855  001CD0                     _TMR1_ISR:
  3856                           	callstack 19
  3857  001CD0                     
  3858                           ;mcc_generated_files/tmr1.c: 162:     PIR1bits.TMR1IF = 0;
  3859  001CD0  909E               	bcf	158,0,c	;volatile
  3860  001CD2                     
  3861                           ;mcc_generated_files/tmr1.c: 163:     TMR1_WriteTimer(timer1ReloadVal);
  3862  001CD2  C039  F001         	movff	_timer1ReloadVal,TMR1_WriteTimer@timerVal	;volatile
  3863  001CD6  C03A  F002         	movff	_timer1ReloadVal+1,TMR1_WriteTimer@timerVal+1	;volatile
  3864  001CDA  ECCC  F00E         	call	_TMR1_WriteTimer	;wreg free
  3865  001CDE                     
  3866                           ;mcc_generated_files/tmr1.c: 165:     if(TMR1_InterruptHandler)
  3867  001CDE  5037               	movf	_TMR1_InterruptHandler^0,w,c
  3868  001CE0  1038               	iorwf	(_TMR1_InterruptHandler+1)^0,w,c
  3869  001CE2  B4D8               	btfsc	status,2,c
  3870  001CE4  EF76  F00E         	goto	i2u77_41
  3871  001CE8  EF78  F00E         	goto	i2u77_40
  3872  001CEC                     i2u77_41:
  3873  001CEC  EF84  F00E         	goto	i2l169
  3874  001CF0                     i2u77_40:
  3875  001CF0                     
  3876                           ;mcc_generated_files/tmr1.c: 166:     {;mcc_generated_files/tmr1.c: 167:         TMR1_In
      +                          terruptHandler();
  3877  001CF0  D802               	call	i2u78_48
  3878  001CF2  EF84  F00E         	goto	i2u78_49
  3879  001CF6                     i2u78_48:
  3880  001CF6  0005               	push	
  3881  001CF8  6EFA               	movwf	pclath,c
  3882  001CFA  5037               	movf	_TMR1_InterruptHandler^0,w,c
  3883  001CFC  6EFD               	movwf	tosl,c
  3884  001CFE  5038               	movf	(_TMR1_InterruptHandler+1)^0,w,c
  3885  001D00  6EFE               	movwf	tosh,c
  3886  001D02  6AFF               	clrf	tosu,c
  3887  001D04  50FA               	movf	pclath,w,c
  3888  001D06  0012               	return		;indir
  3889  001D08                     i2u78_49:
  3890  001D08                     i2l169:
  3891  001D08  0012               	return		;funcret
  3892  001D0A                     __end_of_TMR1_ISR:
  3893                           	callstack 0
  3894                           
  3895 ;; *************** function _TMR1_DefaultInterruptHandler *****************
  3896 ;; Defined at:
  3897 ;;		line 176 in file "mcc_generated_files/tmr1.c"
  3898 ;; Parameters:    Size  Location     Type
  3899 ;;		None
  3900 ;; Auto vars:     Size  Location     Type
  3901 ;;		None
  3902 ;; Return value:  Size  Location     Type
  3903 ;;                  1    wreg      void 
  3904 ;; Registers used:
  3905 ;;		None
  3906 ;; Tracked objects:
  3907 ;;		On entry : 0/0
  3908 ;;		On exit  : 0/0
  3909 ;;		Unchanged: 0/0
  3910 ;; Data sizes:     COMRAM   BANK0   BANK1   BANK2   BANK3   BANK4   BANK5   BANK6   BANK7   BANK8   BANK9  BANK10  BANK1
      +1  BANK12  BANK13  BANK14  BANK15
  3911 ;;      Params:         0       0       0       0       0       0       0       0       0       0       0       0       
      +0       0       0       0       0
  3912 ;;      Locals:         0       0       0       0       0       0       0       0       0       0       0       0       
      +0       0       0       0       0
  3913 ;;      Temps:          0       0       0       0       0       0       0       0       0       0       0       0       
      +0       0       0       0       0
  3914 ;;      Totals:         0       0       0       0       0       0       0       0       0       0       0       0       
      +0       0       0       0       0
  3915 ;;Total ram usage:        0 bytes
  3916 ;; Hardware stack levels used: 1
  3917 ;; This function calls:
  3918 ;;		Nothing
  3919 ;; This function is called by:
  3920 ;;		_TMR1_Initialize
  3921 ;;		_TMR1_ISR
  3922 ;; This function uses a non-reentrant model
  3923 ;;
  3924                           
  3925                           	psect	text33
  3926  001EF6                     __ptext33:
  3927                           	callstack 0
  3928  001EF6                     _TMR1_DefaultInterruptHandler:
  3929                           	callstack 22
  3930  001EF6  0012               	return		;funcret
  3931  001EF8                     __end_of_TMR1_DefaultInterruptHandler:
  3932                           	callstack 0
  3933                           
  3934 ;; *************** function _TimerInterruptHandler *****************
  3935 ;; Defined at:
  3936 ;;		line 141 in file "../lib/handler_lib.c"
  3937 ;; Parameters:    Size  Location     Type
  3938 ;;		None
  3939 ;; Auto vars:     Size  Location     Type
  3940 ;;		None
  3941 ;; Return value:  Size  Location     Type
  3942 ;;                  1    wreg      void 
  3943 ;; Registers used:
  3944 ;;		wreg, fsr1l, fsr1h, fsr2l, fsr2h, status,2, status,0, prodl, prodh, cstack
  3945 ;; Tracked objects:
  3946 ;;		On entry : 0/0
  3947 ;;		On exit  : 0/0
  3948 ;;		Unchanged: 0/0
  3949 ;; Data sizes:     COMRAM   BANK0   BANK1   BANK2   BANK3   BANK4   BANK5   BANK6   BANK7   BANK8   BANK9  BANK10  BANK1
      +1  BANK12  BANK13  BANK14  BANK15
  3950 ;;      Params:         0       0       0       0       0       0       0       0       0       0       0       0       
      +0       0       0       0       0
  3951 ;;      Locals:         0       0       0       0       0       0       0       0       0       0       0       0       
      +0       0       0       0       0
  3952 ;;      Temps:          0       0       0       0       0       0       0       0       0       0       0       0       
      +0       0       0       0       0
  3953 ;;      Totals:         0       0       0       0       0       0       0       0       0       0       0       0       
      +0       0       0       0       0
  3954 ;;Total ram usage:        0 bytes
  3955 ;; Hardware stack levels used: 1
  3956 ;; Hardware stack levels required when called: 3
  3957 ;; This function calls:
  3958 ;;		_SendPing
  3959 ;;		___llmod
  3960 ;; This function is called by:
  3961 ;;		_main
  3962 ;;		_TMR1_ISR
  3963 ;; This function uses a non-reentrant model
  3964 ;;
  3965                           
  3966                           	psect	text34
  3967  001C46                     __ptext34:
  3968                           	callstack 0
  3969  001C46                     _TimerInterruptHandler:
  3970                           	callstack 19
  3971  001C46                     
  3972                           ;../lib/handler_lib.c: 142:     Ticks++;
  3973  001C46  0E01               	movlw	1
  3974  001C48  263B               	addwf	_Ticks^0,f,c
  3975  001C4A  0E00               	movlw	0
  3976  001C4C  223C               	addwfc	(_Ticks+1)^0,f,c
  3977  001C4E  223D               	addwfc	(_Ticks+2)^0,f,c
  3978  001C50  223E               	addwfc	(_Ticks+3)^0,f,c
  3979  001C52                     
  3980                           ;../lib/handler_lib.c: 145:     if (Ticks % PingInterval != 0) {
  3981  001C52  C03B  F001         	movff	_Ticks,___llmod@dividend
  3982  001C56  C03C  F002         	movff	_Ticks+1,___llmod@dividend+1
  3983  001C5A  C03D  F003         	movff	_Ticks+2,___llmod@dividend+2
  3984  001C5E  C03E  F004         	movff	_Ticks+3,___llmod@dividend+3
  3985  001C62  502D               	movf	_PingInterval^0,w,c
  3986  001C64  6E05               	movwf	___llmod@divisor^0,c
  3987  001C66  6A06               	clrf	(___llmod@divisor+1)^0,c
  3988  001C68  6A07               	clrf	(___llmod@divisor+2)^0,c
  3989  001C6A  6A08               	clrf	(___llmod@divisor+3)^0,c
  3990  001C6C  ECEA  F00B         	call	___llmod	;wreg free
  3991  001C70  5001               	movf	?___llmod^0,w,c
  3992  001C72  1002               	iorwf	(?___llmod+1)^0,w,c
  3993  001C74  1003               	iorwf	(?___llmod+2)^0,w,c
  3994  001C76  1004               	iorwf	(?___llmod+3)^0,w,c
  3995  001C78  B4D8               	btfsc	status,2,c
  3996  001C7A  EF41  F00E         	goto	i2u76_41
  3997  001C7E  EF43  F00E         	goto	i2u76_40
  3998  001C82                     i2u76_41:
  3999  001C82  EF45  F00E         	goto	i2l2249
  4000  001C86                     i2u76_40:
  4001  001C86  EF47  F00E         	goto	i2l444
  4002  001C8A                     i2l2249:
  4003                           
  4004                           ;../lib/handler_lib.c: 148:     SendPing();
  4005  001C8A  EC85  F00E         	call	_SendPing	;wreg free
  4006  001C8E                     i2l444:
  4007  001C8E  0012               	return		;funcret
  4008  001C90                     __end_of_TimerInterruptHandler:
  4009                           	callstack 0
  4010                           
  4011 ;; *************** function ___llmod *****************
  4012 ;; Defined at:
  4013 ;;		line 7 in file "/Applications/microchip/xc8/v2.36/pic/sources/c99/common/llmod.c"
  4014 ;; Parameters:    Size  Location     Type
  4015 ;;  dividend        4    0[COMRAM] unsigned long 
  4016 ;;  divisor         4    4[COMRAM] unsigned long 
  4017 ;; Auto vars:     Size  Location     Type
  4018 ;;  counter         1    8[COMRAM] unsigned char 
  4019 ;; Return value:  Size  Location     Type
  4020 ;;                  4    0[COMRAM] unsigned long 
  4021 ;; Registers used:
  4022 ;;		wreg, status,2, status,0
  4023 ;; Tracked objects:
  4024 ;;		On entry : 0/0
  4025 ;;		On exit  : 0/0
  4026 ;;		Unchanged: 0/0
  4027 ;; Data sizes:     COMRAM   BANK0   BANK1   BANK2   BANK3   BANK4   BANK5   BANK6   BANK7   BANK8   BANK9  BANK10  BANK1
      +1  BANK12  BANK13  BANK14  BANK15
  4028 ;;      Params:         8       0       0       0       0       0       0       0       0       0       0       0       
      +0       0       0       0       0
  4029 ;;      Locals:         1       0       0       0       0       0       0       0       0       0       0       0       
      +0       0       0       0       0
  4030 ;;      Temps:          0       0       0       0       0       0       0       0       0       0       0       0       
      +0       0       0       0       0
  4031 ;;      Totals:         9       0       0       0       0       0       0       0       0       0       0       0       
      +0       0       0       0       0
  4032 ;;Total ram usage:        9 bytes
  4033 ;; Hardware stack levels used: 1
  4034 ;; This function calls:
  4035 ;;		Nothing
  4036 ;; This function is called by:
  4037 ;;		_TimerInterruptHandler
  4038 ;; This function uses a non-reentrant model
  4039 ;;
  4040                           
  4041                           	psect	text35
  4042  0017D4                     __ptext35:
  4043                           	callstack 0
  4044  0017D4                     ___llmod:
  4045                           	callstack 21
  4046  0017D4  5005               	movf	___llmod@divisor^0,w,c
  4047  0017D6  1006               	iorwf	(___llmod@divisor+1)^0,w,c
  4048  0017D8  1007               	iorwf	(___llmod@divisor+2)^0,w,c
  4049  0017DA  1008               	iorwf	(___llmod@divisor+3)^0,w,c
  4050  0017DC  B4D8               	btfsc	status,2,c
  4051  0017DE  EFF3  F00B         	goto	i2u70_41
  4052  0017E2  EFF5  F00B         	goto	i2u70_40
  4053  0017E6                     i2u70_41:
  4054  0017E6  EF25  F00C         	goto	i2l900
  4055  0017EA                     i2u70_40:
  4056  0017EA  0E01               	movlw	1
  4057  0017EC  6E09               	movwf	___llmod@counter^0,c
  4058  0017EE  EFFF  F00B         	goto	i2l2117
  4059  0017F2                     i2l2115:
  4060  0017F2  90D8               	bcf	status,0,c
  4061  0017F4  3605               	rlcf	___llmod@divisor^0,f,c
  4062  0017F6  3606               	rlcf	(___llmod@divisor+1)^0,f,c
  4063  0017F8  3607               	rlcf	(___llmod@divisor+2)^0,f,c
  4064  0017FA  3608               	rlcf	(___llmod@divisor+3)^0,f,c
  4065  0017FC  2A09               	incf	___llmod@counter^0,f,c
  4066  0017FE                     i2l2117:
  4067  0017FE  AE08               	btfss	(___llmod@divisor+3)^0,7,c
  4068  001800  EF04  F00C         	goto	i2u71_41
  4069  001804  EF06  F00C         	goto	i2u71_40
  4070  001808                     i2u71_41:
  4071  001808  EFF9  F00B         	goto	i2l2115
  4072  00180C                     i2u71_40:
  4073  00180C                     i2l2119:
  4074  00180C  5005               	movf	___llmod@divisor^0,w,c
  4075  00180E  5C01               	subwf	___llmod@dividend^0,w,c
  4076  001810  5006               	movf	(___llmod@divisor+1)^0,w,c
  4077  001812  5802               	subwfb	(___llmod@dividend+1)^0,w,c
  4078  001814  5007               	movf	(___llmod@divisor+2)^0,w,c
  4079  001816  5803               	subwfb	(___llmod@dividend+2)^0,w,c
  4080  001818  5008               	movf	(___llmod@divisor+3)^0,w,c
  4081  00181A  5804               	subwfb	(___llmod@dividend+3)^0,w,c
  4082  00181C  A0D8               	btfss	status,0,c
  4083  00181E  EF13  F00C         	goto	i2u72_41
  4084  001822  EF15  F00C         	goto	i2u72_40
  4085  001826                     i2u72_41:
  4086  001826  EF1D  F00C         	goto	i2l2123
  4087  00182A                     i2u72_40:
  4088  00182A  5005               	movf	___llmod@divisor^0,w,c
  4089  00182C  5E01               	subwf	___llmod@dividend^0,f,c
  4090  00182E  5006               	movf	(___llmod@divisor+1)^0,w,c
  4091  001830  5A02               	subwfb	(___llmod@dividend+1)^0,f,c
  4092  001832  5007               	movf	(___llmod@divisor+2)^0,w,c
  4093  001834  5A03               	subwfb	(___llmod@dividend+2)^0,f,c
  4094  001836  5008               	movf	(___llmod@divisor+3)^0,w,c
  4095  001838  5A04               	subwfb	(___llmod@dividend+3)^0,f,c
  4096  00183A                     i2l2123:
  4097  00183A  90D8               	bcf	status,0,c
  4098  00183C  3208               	rrcf	(___llmod@divisor+3)^0,f,c
  4099  00183E  3207               	rrcf	(___llmod@divisor+2)^0,f,c
  4100  001840  3206               	rrcf	(___llmod@divisor+1)^0,f,c
  4101  001842  3205               	rrcf	___llmod@divisor^0,f,c
  4102  001844  2E09               	decfsz	___llmod@counter^0,f,c
  4103  001846  EF06  F00C         	goto	i2l2119
  4104  00184A                     i2l900:
  4105  00184A  C001  F001         	movff	___llmod@dividend,?___llmod
  4106  00184E  C002  F002         	movff	___llmod@dividend+1,?___llmod+1
  4107  001852  C003  F003         	movff	___llmod@dividend+2,?___llmod+2
  4108  001856  C004  F004         	movff	___llmod@dividend+3,?___llmod+3
  4109  00185A  0012               	return		;funcret
  4110  00185C                     __end_of___llmod:
  4111                           	callstack 0
  4112                           
  4113 ;; *************** function _SendPing *****************
  4114 ;; Defined at:
  4115 ;;		line 223 in file "../lib/handler_lib.c"
  4116 ;; Parameters:    Size  Location     Type
  4117 ;;		None
  4118 ;; Auto vars:     Size  Location     Type
  4119 ;;		None
  4120 ;; Return value:  Size  Location     Type
  4121 ;;                  1    wreg      void 
  4122 ;; Registers used:
  4123 ;;		wreg, fsr1l, fsr1h, fsr2l, fsr2h, status,2, status,0, prodl, prodh, cstack
  4124 ;; Tracked objects:
  4125 ;;		On entry : 0/0
  4126 ;;		On exit  : 0/0
  4127 ;;		Unchanged: 0/0
  4128 ;; Data sizes:     COMRAM   BANK0   BANK1   BANK2   BANK3   BANK4   BANK5   BANK6   BANK7   BANK8   BANK9  BANK10  BANK1
      +1  BANK12  BANK13  BANK14  BANK15
  4129 ;;      Params:         0       0       0       0       0       0       0       0       0       0       0       0       
      +0       0       0       0       0
  4130 ;;      Locals:         0       0       0       0       0       0       0       0       0       0       0       0       
      +0       0       0       0       0
  4131 ;;      Temps:          0       0       0       0       0       0       0       0       0       0       0       0       
      +0       0       0       0       0
  4132 ;;      Totals:         0       0       0       0       0       0       0       0       0       0       0       0       
      +0       0       0       0       0
  4133 ;;Total ram usage:        0 bytes
  4134 ;; Hardware stack levels used: 1
  4135 ;; Hardware stack levels required when called: 2
  4136 ;; This function calls:
  4137 ;;		i2_QueueTXPacket
  4138 ;;		i2_SuperMemCpy
  4139 ;; This function is called by:
  4140 ;;		_TimerInterruptHandler
  4141 ;; This function uses a non-reentrant model
  4142 ;;
  4143                           
  4144                           	psect	text36
  4145  001D0A                     __ptext36:
  4146                           	callstack 0
  4147  001D0A                     _SendPing:
  4148                           	callstack 19
  4149  001D0A                     
  4150                           ;../lib/handler_lib.c: 224:     bufferTX[0] = 0x02;
  4151  001D0A  0E02               	movlw	2
  4152  001D0C  0100               	movlb	0	; () banked
  4153  001D0E  6F82               	movwf	_bufferTX& (0+255),b
  4154  001D10                     
  4155                           ; BSR set to: 0
  4156                           ;../lib/handler_lib.c: 225:     SuperMemCpy(bufferTX, 1, BoardAddress, 0, 3);
  4157  001D10  0E82               	movlw	low _bufferTX
  4158  001D12  6E01               	movwf	i2SuperMemCpy@dest^0,c
  4159  001D14  0E00               	movlw	high _bufferTX
  4160  001D16  6E02               	movwf	(i2SuperMemCpy@dest+1)^0,c
  4161  001D18  0E01               	movlw	1
  4162  001D1A  6E03               	movwf	i2SuperMemCpy@destStart^0,c
  4163  001D1C  0E34               	movlw	low _BoardAddress
  4164  001D1E  6E04               	movwf	i2SuperMemCpy@src^0,c
  4165  001D20  0E00               	movlw	high _BoardAddress
  4166  001D22  6E05               	movwf	(i2SuperMemCpy@src+1)^0,c
  4167  001D24  0E00               	movlw	0
  4168  001D26  6E06               	movwf	i2SuperMemCpy@srcStart^0,c
  4169  001D28  0E03               	movlw	3
  4170  001D2A  6E07               	movwf	i2SuperMemCpy@sz^0,c
  4171  001D2C  EC5E  F00D         	call	i2_SuperMemCpy	;wreg free
  4172  001D30                     
  4173                           ;../lib/handler_lib.c: 226:     QueueTXPacket(bufferTX, (3 + 1));
  4174  001D30  0E82               	movlw	low _bufferTX
  4175  001D32  6E0C               	movwf	i2QueueTXPacket@buffer^0,c
  4176  001D34  0E00               	movlw	high _bufferTX
  4177  001D36  6E0D               	movwf	(i2QueueTXPacket@buffer+1)^0,c
  4178  001D38  0E04               	movlw	4
  4179  001D3A  6E0E               	movwf	i2QueueTXPacket@sz^0,c
  4180  001D3C  EC64  F00A         	call	i2_QueueTXPacket	;wreg free
  4181  001D40  0012               	return		;funcret
  4182  001D42                     __end_of_SendPing:
  4183                           	callstack 0
  4184                           
  4185 ;; *************** function i2_SuperMemCpy *****************
  4186 ;; Defined at:
  4187 ;;		line 229 in file "../lib/handler_lib.c"
  4188 ;; Parameters:    Size  Location     Type
  4189 ;;  dest            2    0[COMRAM] PTR unsigned char 
  4190 ;;		 -> bufferTX(32), ProcessAckPayload@data(32), config(17), 
  4191 ;;  destStart       1    2[COMRAM] unsigned char 
  4192 ;;  src             2    3[COMRAM] PTR unsigned char 
  4193 ;;		 -> bufferRX(32), BoardAddress(3), ProcessActionRequest@tmpHumidity(2), 
  4194 ;;  srcStart        1    5[COMRAM] unsigned char 
  4195 ;;  sz              1    6[COMRAM] unsigned char 
  4196 ;; Auto vars:     Size  Location     Type
  4197 ;;  i               1   11[COMRAM] unsigned char 
  4198 ;; Return value:  Size  Location     Type
  4199 ;;                  1    wreg      void 
  4200 ;; Registers used:
  4201 ;;		wreg, fsr1l, fsr1h, fsr2l, fsr2h, status,2, status,0
  4202 ;; Tracked objects:
  4203 ;;		On entry : 0/0
  4204 ;;		On exit  : 0/0
  4205 ;;		Unchanged: 0/0
  4206 ;; Data sizes:     COMRAM   BANK0   BANK1   BANK2   BANK3   BANK4   BANK5   BANK6   BANK7   BANK8   BANK9  BANK10  BANK1
      +1  BANK12  BANK13  BANK14  BANK15
  4207 ;;      Params:         7       0       0       0       0       0       0       0       0       0       0       0       
      +0       0       0       0       0
  4208 ;;      Locals:         1       0       0       0       0       0       0       0       0       0       0       0       
      +0       0       0       0       0
  4209 ;;      Temps:          4       0       0       0       0       0       0       0       0       0       0       0       
      +0       0       0       0       0
  4210 ;;      Totals:        12       0       0       0       0       0       0       0       0       0       0       0       
      +0       0       0       0       0
  4211 ;;Total ram usage:       12 bytes
  4212 ;; Hardware stack levels used: 1
  4213 ;; This function calls:
  4214 ;;		Nothing
  4215 ;; This function is called by:
  4216 ;;		_SendPing
  4217 ;; This function uses a non-reentrant model
  4218 ;;
  4219                           
  4220                           	psect	text37
  4221  001ABC                     __ptext37:
  4222                           	callstack 0
  4223  001ABC                     i2_SuperMemCpy:
  4224                           	callstack 20
  4225  001ABC                     
  4226                           ;../lib/handler_lib.c: 230:     for (uint8_t i = 0; i < sz; i++) {
  4227  001ABC  0E00               	movlw	0
  4228  001ABE  6E0C               	movwf	i2SuperMemCpy@i^0,c
  4229  001AC0  EF7D  F00D         	goto	i2l2029
  4230  001AC4                     i2l2025:
  4231                           
  4232                           ;../lib/handler_lib.c: 231:         dest[i + destStart] = src[i + srcStart];
  4233  001AC4  500C               	movf	i2SuperMemCpy@i^0,w,c
  4234  001AC6  2404               	addwf	i2SuperMemCpy@src^0,w,c
  4235  001AC8  6E08               	movwf	??i2_SuperMemCpy^0,c
  4236  001ACA  0E00               	movlw	0
  4237  001ACC  2005               	addwfc	(i2SuperMemCpy@src+1)^0,w,c
  4238  001ACE  6E09               	movwf	(??i2_SuperMemCpy+1)^0,c
  4239  001AD0  5006               	movf	i2SuperMemCpy@srcStart^0,w,c
  4240  001AD2  2408               	addwf	??i2_SuperMemCpy^0,w,c
  4241  001AD4  6ED9               	movwf	fsr2l,c
  4242  001AD6  0E00               	movlw	0
  4243  001AD8  2009               	addwfc	(??i2_SuperMemCpy+1)^0,w,c
  4244  001ADA  6EDA               	movwf	fsr2h,c
  4245  001ADC  500C               	movf	i2SuperMemCpy@i^0,w,c
  4246  001ADE  2401               	addwf	i2SuperMemCpy@dest^0,w,c
  4247  001AE0  6E0A               	movwf	(??i2_SuperMemCpy+2)^0,c
  4248  001AE2  0E00               	movlw	0
  4249  001AE4  2002               	addwfc	(i2SuperMemCpy@dest+1)^0,w,c
  4250  001AE6  6E0B               	movwf	(??i2_SuperMemCpy+3)^0,c
  4251  001AE8  5003               	movf	i2SuperMemCpy@destStart^0,w,c
  4252  001AEA  240A               	addwf	(??i2_SuperMemCpy+2)^0,w,c
  4253  001AEC  6EE1               	movwf	fsr1l,c
  4254  001AEE  0E00               	movlw	0
  4255  001AF0  200B               	addwfc	(??i2_SuperMemCpy+3)^0,w,c
  4256  001AF2  6EE2               	movwf	fsr1h,c
  4257  001AF4  CFDF FFE7          	movff	indf2,indf1
  4258  001AF8                     
  4259                           ;../lib/handler_lib.c: 232:     }
  4260  001AF8  2A0C               	incf	i2SuperMemCpy@i^0,f,c
  4261  001AFA                     i2l2029:
  4262  001AFA  5007               	movf	i2SuperMemCpy@sz^0,w,c
  4263  001AFC  5C0C               	subwf	i2SuperMemCpy@i^0,w,c
  4264  001AFE  A0D8               	btfss	status,0,c
  4265  001B00  EF84  F00D         	goto	i2u66_41
  4266  001B04  EF86  F00D         	goto	i2u66_40
  4267  001B08                     i2u66_41:
  4268  001B08  EF62  F00D         	goto	i2l2025
  4269  001B0C                     i2u66_40:
  4270  001B0C  0012               	return		;funcret
  4271  001B0E                     __end_ofi2_SuperMemCpy:
  4272                           	callstack 0
  4273                           
  4274 ;; *************** function i2_QueueTXPacket *****************
  4275 ;; Defined at:
  4276 ;;		line 65 in file "../lib/handler_lib.c"
  4277 ;; Parameters:    Size  Location     Type
  4278 ;;  buffer          2   11[COMRAM] PTR unsigned char 
  4279 ;;		 -> bufferTX(32), 
  4280 ;;  sz              1   13[COMRAM] unsigned char 
  4281 ;; Auto vars:     Size  Location     Type
  4282 ;;  oldestTime      4   18[COMRAM] unsigned long 
  4283 ;;  i               1   23[COMRAM] unsigned char 
  4284 ;;  oldestPkt       1   22[COMRAM] unsigned char 
  4285 ;; Return value:  Size  Location     Type
  4286 ;;                  1    wreg      void 
  4287 ;; Registers used:
  4288 ;;		wreg, fsr2l, fsr2h, status,2, status,0, prodl, prodh, cstack
  4289 ;; Tracked objects:
  4290 ;;		On entry : 0/0
  4291 ;;		On exit  : 0/0
  4292 ;;		Unchanged: 0/0
  4293 ;; Data sizes:     COMRAM   BANK0   BANK1   BANK2   BANK3   BANK4   BANK5   BANK6   BANK7   BANK8   BANK9  BANK10  BANK1
      +1  BANK12  BANK13  BANK14  BANK15
  4294 ;;      Params:         3       0       0       0       0       0       0       0       0       0       0       0       
      +0       0       0       0       0
  4295 ;;      Locals:         6       0       0       0       0       0       0       0       0       0       0       0       
      +0       0       0       0       0
  4296 ;;      Temps:          4       0       0       0       0       0       0       0       0       0       0       0       
      +0       0       0       0       0
  4297 ;;      Totals:        13       0       0       0       0       0       0       0       0       0       0       0       
      +0       0       0       0       0
  4298 ;;Total ram usage:       13 bytes
  4299 ;; Hardware stack levels used: 1
  4300 ;; Hardware stack levels required when called: 1
  4301 ;; This function calls:
  4302 ;;		i2_memcpy
  4303 ;; This function is called by:
  4304 ;;		_SendPing
  4305 ;; This function uses a non-reentrant model
  4306 ;;
  4307                           
  4308                           	psect	text38
  4309  0014C8                     __ptext38:
  4310                           	callstack 0
  4311  0014C8                     i2_QueueTXPacket:
  4312                           	callstack 19
  4313  0014C8                     
  4314                           ;../lib/handler_lib.c: 66:     uint8_t i, oldestPkt = 0;
  4315  0014C8  0E00               	movlw	0
  4316  0014CA  6E17               	movwf	i2QueueTXPacket@oldestPkt^0,c
  4317  0014CC                     
  4318                           ;../lib/handler_lib.c: 67:     uint32_t oldestTime = Ticks;
  4319  0014CC  C03B  F013         	movff	_Ticks,i2QueueTXPacket@oldestTime
  4320  0014D0  C03C  F014         	movff	_Ticks+1,i2QueueTXPacket@oldestTime+1
  4321  0014D4  C03D  F015         	movff	_Ticks+2,i2QueueTXPacket@oldestTime+2
  4322  0014D8  C03E  F016         	movff	_Ticks+3,i2QueueTXPacket@oldestTime+3
  4323                           
  4324                           ;../lib/handler_lib.c: 68:     for (i = 0; i < 8; i++) {
  4325  0014DC  0E00               	movlw	0
  4326  0014DE  6E18               	movwf	i2QueueTXPacket@i^0,c
  4327  0014E0                     i2l2001:
  4328                           
  4329                           ;../lib/handler_lib.c: 70:         if (packetsTX[i].tmpstmp < oldestTime) {
  4330  0014E0  5018               	movf	i2QueueTXPacket@i^0,w,c
  4331  0014E2  0D26               	mullw	38
  4332  0014E4  0E18               	movlw	low (_packetsTX+34)
  4333  0014E6  24F3               	addwf	243,w,c
  4334  0014E8  6ED9               	movwf	fsr2l,c
  4335  0014EA  0E01               	movlw	high (_packetsTX+34)
  4336  0014EC  20F4               	addwfc	prodh,w,c
  4337  0014EE  6EDA               	movwf	fsr2h,c
  4338  0014F0  5013               	movf	i2QueueTXPacket@oldestTime^0,w,c
  4339  0014F2  5CDE               	subwf	postinc2,w,c
  4340  0014F4  5014               	movf	(i2QueueTXPacket@oldestTime+1)^0,w,c
  4341  0014F6  58DE               	subwfb	postinc2,w,c
  4342  0014F8  5015               	movf	(i2QueueTXPacket@oldestTime+2)^0,w,c
  4343  0014FA  58DE               	subwfb	postinc2,w,c
  4344  0014FC  5016               	movf	(i2QueueTXPacket@oldestTime+3)^0,w,c
  4345  0014FE  58DE               	subwfb	postinc2,w,c
  4346  001500  B0D8               	btfsc	status,0,c
  4347  001502  EF85  F00A         	goto	i2u62_41
  4348  001506  EF87  F00A         	goto	i2u62_40
  4349  00150A                     i2u62_41:
  4350  00150A  EF99  F00A         	goto	i2l417
  4351  00150E                     i2u62_40:
  4352  00150E                     
  4353                           ;../lib/handler_lib.c: 71:             oldestTime = packetsTX[i].tmpstmp;
  4354  00150E  5018               	movf	i2QueueTXPacket@i^0,w,c
  4355  001510  0D26               	mullw	38
  4356  001512  0E18               	movlw	low (_packetsTX+34)
  4357  001514  24F3               	addwf	243,w,c
  4358  001516  6ED9               	movwf	fsr2l,c
  4359  001518  0E01               	movlw	high (_packetsTX+34)
  4360  00151A  20F4               	addwfc	prodh,w,c
  4361  00151C  6EDA               	movwf	fsr2h,c
  4362  00151E  CFDE F013          	movff	postinc2,i2QueueTXPacket@oldestTime
  4363  001522  CFDE F014          	movff	postinc2,i2QueueTXPacket@oldestTime+1
  4364  001526  CFDE F015          	movff	postinc2,i2QueueTXPacket@oldestTime+2
  4365  00152A  CFDE F016          	movff	postinc2,i2QueueTXPacket@oldestTime+3
  4366  00152E                     
  4367                           ;../lib/handler_lib.c: 72:             oldestPkt = i;
  4368  00152E  C018  F017         	movff	i2QueueTXPacket@i,i2QueueTXPacket@oldestPkt
  4369  001532                     i2l417:
  4370                           
  4371                           ;../lib/handler_lib.c: 74:         if (packetsTX[i].free) {
  4372  001532  5018               	movf	i2QueueTXPacket@i^0,w,c
  4373  001534  0D26               	mullw	38
  4374  001536  0E16               	movlw	low (_packetsTX+32)
  4375  001538  24F3               	addwf	243,w,c
  4376  00153A  6ED9               	movwf	fsr2l,c
  4377  00153C  0E01               	movlw	high (_packetsTX+32)
  4378  00153E  20F4               	addwfc	prodh,w,c
  4379  001540  6EDA               	movwf	fsr2h,c
  4380  001542  50DF               	movf	indf2,w,c
  4381  001544  B4D8               	btfsc	status,2,c
  4382  001546  EFA7  F00A         	goto	i2u63_41
  4383  00154A  EFA9  F00A         	goto	i2u63_40
  4384  00154E                     i2u63_41:
  4385  00154E  EFAB  F00A         	goto	i2l2009
  4386  001552                     i2u63_40:
  4387  001552  EFB4  F00A         	goto	i2l2013
  4388  001556                     i2l2009:
  4389                           
  4390                           ;../lib/handler_lib.c: 77:     }
  4391  001556  2A18               	incf	i2QueueTXPacket@i^0,f,c
  4392  001558  0E07               	movlw	7
  4393  00155A  6418               	cpfsgt	i2QueueTXPacket@i^0,c
  4394  00155C  EFB2  F00A         	goto	i2u64_41
  4395  001560  EFB4  F00A         	goto	i2u64_40
  4396  001564                     i2u64_41:
  4397  001564  EF70  F00A         	goto	i2l2001
  4398  001568                     i2u64_40:
  4399  001568                     i2l2013:
  4400                           
  4401                           ;../lib/handler_lib.c: 79:     if (i == 8) {
  4402  001568  0E08               	movlw	8
  4403  00156A  1818               	xorwf	i2QueueTXPacket@i^0,w,c
  4404  00156C  A4D8               	btfss	status,2,c
  4405  00156E  EFBB  F00A         	goto	i2u65_41
  4406  001572  EFBD  F00A         	goto	i2u65_40
  4407  001576                     i2u65_41:
  4408  001576  EFBF  F00A         	goto	i2l2017
  4409  00157A                     i2u65_40:
  4410  00157A                     
  4411                           ;../lib/handler_lib.c: 80:         i = oldestPkt;
  4412  00157A  C017  F018         	movff	i2QueueTXPacket@oldestPkt,i2QueueTXPacket@i
  4413  00157E                     i2l2017:
  4414                           
  4415                           ;../lib/handler_lib.c: 82:     packetsTX[i].free = 0;
  4416  00157E  5018               	movf	i2QueueTXPacket@i^0,w,c
  4417  001580  0D26               	mullw	38
  4418  001582  0E16               	movlw	low (_packetsTX+32)
  4419  001584  24F3               	addwf	243,w,c
  4420  001586  6ED9               	movwf	fsr2l,c
  4421  001588  0E01               	movlw	high (_packetsTX+32)
  4422  00158A  20F4               	addwfc	prodh,w,c
  4423  00158C  6EDA               	movwf	fsr2h,c
  4424  00158E  0E00               	movlw	0
  4425  001590  6EDF               	movwf	indf2,c
  4426                           
  4427                           ;../lib/handler_lib.c: 83:     packetsTX[i].size = sz;
  4428  001592  5018               	movf	i2QueueTXPacket@i^0,w,c
  4429  001594  0D26               	mullw	38
  4430  001596  0E17               	movlw	low (_packetsTX+33)
  4431  001598  24F3               	addwf	243,w,c
  4432  00159A  6ED9               	movwf	fsr2l,c
  4433  00159C  0E01               	movlw	high (_packetsTX+33)
  4434  00159E  20F4               	addwfc	prodh,w,c
  4435  0015A0  6EDA               	movwf	fsr2h,c
  4436  0015A2  C00E  FFDF         	movff	i2QueueTXPacket@sz,indf2
  4437  0015A6                     
  4438                           ;../lib/handler_lib.c: 84:     memcpy(packetsTX[i].packet, buffer, sz);
  4439  0015A6  5018               	movf	i2QueueTXPacket@i^0,w,c
  4440  0015A8  0D26               	mullw	38
  4441  0015AA  0EF6               	movlw	low _packetsTX
  4442  0015AC  24F3               	addwf	243,w,c
  4443  0015AE  6E01               	movwf	i2memcpy@d1^0,c
  4444  0015B0  0E00               	movlw	high _packetsTX
  4445  0015B2  20F4               	addwfc	prodh,w,c
  4446  0015B4  6E02               	movwf	(i2memcpy@d1+1)^0,c
  4447  0015B6  C00C  F003         	movff	i2QueueTXPacket@buffer,i2memcpy@s1
  4448  0015BA  C00D  F004         	movff	i2QueueTXPacket@buffer+1,i2memcpy@s1+1
  4449  0015BE  C00E  F005         	movff	i2QueueTXPacket@sz,i2memcpy@n
  4450  0015C2  6A06               	clrf	(i2memcpy@n+1)^0,c
  4451  0015C4  ECAF  F00D         	call	i2_memcpy	;wreg free
  4452  0015C8                     
  4453                           ;../lib/handler_lib.c: 85:     packetsTX[i].tmpstmp = Ticks;
  4454  0015C8  5018               	movf	i2QueueTXPacket@i^0,w,c
  4455  0015CA  0D26               	mullw	38
  4456  0015CC  0E18               	movlw	low (_packetsTX+34)
  4457  0015CE  24F3               	addwf	243,w,c
  4458  0015D0  6ED9               	movwf	fsr2l,c
  4459  0015D2  0E01               	movlw	high (_packetsTX+34)
  4460  0015D4  20F4               	addwfc	prodh,w,c
  4461  0015D6  6EDA               	movwf	fsr2h,c
  4462  0015D8  C03B  FFDE         	movff	_Ticks,postinc2
  4463  0015DC  C03C  FFDE         	movff	_Ticks+1,postinc2
  4464  0015E0  C03D  FFDE         	movff	_Ticks+2,postinc2
  4465  0015E4  C03E  FFDE         	movff	_Ticks+3,postinc2
  4466  0015E8  0012               	return		;funcret
  4467  0015EA                     __end_ofi2_QueueTXPacket:
  4468                           	callstack 0
  4469                           
  4470 ;; *************** function i2_memcpy *****************
  4471 ;; Defined at:
  4472 ;;		line 4 in file "/Applications/microchip/xc8/v2.36/pic/sources/c99/common/memcpy.c"
  4473 ;; Parameters:    Size  Location     Type
  4474 ;;  d1              2    0[COMRAM] PTR void 
  4475 ;;		 -> packetsTX(304), BoardAddress(3), config(17), 
  4476 ;;  s1              2    2[COMRAM] PTR const void 
  4477 ;;		 -> bufferTX(32), BoardAddress(3), config(17), DEFAULT_PIPE_ADDR(6), 
  4478 ;;  n               2    4[COMRAM] unsigned int 
  4479 ;; Auto vars:     Size  Location     Type
  4480 ;;  s               2    8[COMRAM] PTR const unsigned char 
  4481 ;;		 -> bufferTX(32), BoardAddress(3), config(17), DEFAULT_PIPE_ADDR(6), 
  4482 ;;  d               2    6[COMRAM] PTR unsigned char 
  4483 ;;		 -> packetsTX(304), BoardAddress(3), config(17), 
  4484 ;;  tmp             1   10[COMRAM] unsigned char 
  4485 ;; Return value:  Size  Location     Type
  4486 ;;                  2    0[COMRAM] PTR void 
  4487 ;; Registers used:
  4488 ;;		wreg, fsr2l, fsr2h, status,2, status,0
  4489 ;; Tracked objects:
  4490 ;;		On entry : 0/0
  4491 ;;		On exit  : 0/0
  4492 ;;		Unchanged: 0/0
  4493 ;; Data sizes:     COMRAM   BANK0   BANK1   BANK2   BANK3   BANK4   BANK5   BANK6   BANK7   BANK8   BANK9  BANK10  BANK1
      +1  BANK12  BANK13  BANK14  BANK15
  4494 ;;      Params:         6       0       0       0       0       0       0       0       0       0       0       0       
      +0       0       0       0       0
  4495 ;;      Locals:         5       0       0       0       0       0       0       0       0       0       0       0       
      +0       0       0       0       0
  4496 ;;      Temps:          0       0       0       0       0       0       0       0       0       0       0       0       
      +0       0       0       0       0
  4497 ;;      Totals:        11       0       0       0       0       0       0       0       0       0       0       0       
      +0       0       0       0       0
  4498 ;;Total ram usage:       11 bytes
  4499 ;; Hardware stack levels used: 1
  4500 ;; This function calls:
  4501 ;;		Nothing
  4502 ;; This function is called by:
  4503 ;;		i2_QueueTXPacket
  4504 ;; This function uses a non-reentrant model
  4505 ;;
  4506                           
  4507                           	psect	text39
  4508  001B5E                     __ptext39:
  4509                           	callstack 0
  4510  001B5E                     i2_memcpy:
  4511                           	callstack 19
  4512  001B5E  C003  F009         	movff	i2memcpy@s1,i2memcpy@s
  4513  001B62  C004  F00A         	movff	i2memcpy@s1+1,i2memcpy@s+1
  4514  001B66  C001  F007         	movff	i2memcpy@d1,i2memcpy@d
  4515  001B6A  C002  F008         	movff	i2memcpy@d1+1,i2memcpy@d+1
  4516  001B6E  EFC9  F00D         	goto	i2l1937
  4517  001B72                     i2l1929:
  4518  001B72  C009  FFD9         	movff	i2memcpy@s,fsr2l
  4519  001B76  C00A  FFDA         	movff	i2memcpy@s+1,fsr2h
  4520  001B7A  50DF               	movf	indf2,w,c
  4521  001B7C  6E0B               	movwf	i2memcpy@tmp^0,c
  4522  001B7E  4A09               	infsnz	i2memcpy@s^0,f,c
  4523  001B80  2A0A               	incf	(i2memcpy@s+1)^0,f,c
  4524  001B82  C007  FFD9         	movff	i2memcpy@d,fsr2l
  4525  001B86  C008  FFDA         	movff	i2memcpy@d+1,fsr2h
  4526  001B8A  C00B  FFDF         	movff	i2memcpy@tmp,indf2
  4527  001B8E  4A07               	infsnz	i2memcpy@d^0,f,c
  4528  001B90  2A08               	incf	(i2memcpy@d+1)^0,f,c
  4529  001B92                     i2l1937:
  4530  001B92  0605               	decf	i2memcpy@n^0,f,c
  4531  001B94  A0D8               	btfss	status,0,c
  4532  001B96  0606               	decf	(i2memcpy@n+1)^0,f,c
  4533  001B98  2805               	incf	i2memcpy@n^0,w,c
  4534  001B9A  E106               	bnz	i2u61_41
  4535  001B9C  2806               	incf	(i2memcpy@n+1)^0,w,c
  4536  001B9E  A4D8               	btfss	status,2,c
  4537  001BA0  EFD4  F00D         	goto	i2u61_41
  4538  001BA4  EFD6  F00D         	goto	i2u61_40
  4539  001BA8                     i2u61_41:
  4540  001BA8  EFB9  F00D         	goto	i2l1929
  4541  001BAC                     i2u61_40:
  4542  001BAC  0012               	return		;funcret
  4543  001BAE                     __end_ofi2_memcpy:
  4544                           	callstack 0
  4545                           
  4546 ;; *************** function _TMR1_WriteTimer *****************
  4547 ;; Defined at:
  4548 ;;		line 121 in file "mcc_generated_files/tmr1.c"
  4549 ;; Parameters:    Size  Location     Type
  4550 ;;  timerVal        2    0[COMRAM] unsigned short 
  4551 ;; Auto vars:     Size  Location     Type
  4552 ;;		None
  4553 ;; Return value:  Size  Location     Type
  4554 ;;                  1    wreg      void 
  4555 ;; Registers used:
  4556 ;;		wreg, status,2
  4557 ;; Tracked objects:
  4558 ;;		On entry : 0/0
  4559 ;;		On exit  : 0/0
  4560 ;;		Unchanged: 0/0
  4561 ;; Data sizes:     COMRAM   BANK0   BANK1   BANK2   BANK3   BANK4   BANK5   BANK6   BANK7   BANK8   BANK9  BANK10  BANK1
      +1  BANK12  BANK13  BANK14  BANK15
  4562 ;;      Params:         2       0       0       0       0       0       0       0       0       0       0       0       
      +0       0       0       0       0
  4563 ;;      Locals:         0       0       0       0       0       0       0       0       0       0       0       0       
      +0       0       0       0       0
  4564 ;;      Temps:          0       0       0       0       0       0       0       0       0       0       0       0       
      +0       0       0       0       0
  4565 ;;      Totals:         2       0       0       0       0       0       0       0       0       0       0       0       
      +0       0       0       0       0
  4566 ;;Total ram usage:        2 bytes
  4567 ;; Hardware stack levels used: 1
  4568 ;; This function calls:
  4569 ;;		Nothing
  4570 ;; This function is called by:
  4571 ;;		_TMR1_ISR
  4572 ;;		_TMR1_Reload
  4573 ;; This function uses a non-reentrant model
  4574 ;;
  4575                           
  4576                           	psect	text40
  4577  001D98                     __ptext40:
  4578                           	callstack 0
  4579  001D98                     _TMR1_WriteTimer:
  4580                           	callstack 22
  4581  001D98                     
  4582                           ;mcc_generated_files/tmr1.c: 121: void TMR1_WriteTimer(uint16_t timerVal);mcc_generated_
      +                          files/tmr1.c: 122: {;mcc_generated_files/tmr1.c: 123:     if (T1CONbits.T1SYNC == 1)
  4583  001D98  A4CD               	btfss	205,2,c	;volatile
  4584  001D9A  EFD1  F00E         	goto	i2u73_41
  4585  001D9E  EFD3  F00E         	goto	i2u73_40
  4586  001DA2                     i2u73_41:
  4587  001DA2  EFDB  F00E         	goto	i2l2149
  4588  001DA6                     i2u73_40:
  4589  001DA6                     
  4590                           ;mcc_generated_files/tmr1.c: 124:     {;mcc_generated_files/tmr1.c: 126:         T1CONbi
      +                          ts.TMR1ON = 0;
  4591  001DA6  90CD               	bcf	205,0,c	;volatile
  4592  001DA8                     
  4593                           ;mcc_generated_files/tmr1.c: 129:         TMR1H = (uint8_t)(timerVal >> 8);
  4594  001DA8  5002               	movf	(TMR1_WriteTimer@timerVal+1)^0,w,c
  4595  001DAA  6ECF               	movwf	207,c	;volatile
  4596  001DAC                     
  4597                           ;mcc_generated_files/tmr1.c: 130:         TMR1L = (uint8_t)timerVal;
  4598  001DAC  C001  FFCE         	movff	TMR1_WriteTimer@timerVal,4046	;volatile
  4599  001DB0                     
  4600                           ;mcc_generated_files/tmr1.c: 133:         T1CONbits.TMR1ON =1;
  4601  001DB0  80CD               	bsf	205,0,c	;volatile
  4602                           
  4603                           ;mcc_generated_files/tmr1.c: 134:     }
  4604  001DB2  EFDF  F00E         	goto	i2l156
  4605  001DB6                     i2l2149:
  4606                           
  4607                           ;mcc_generated_files/tmr1.c: 136:     {;mcc_generated_files/tmr1.c: 138:         TMR1H =
      +                           (uint8_t)(timerVal >> 8);
  4608  001DB6  5002               	movf	(TMR1_WriteTimer@timerVal+1)^0,w,c
  4609  001DB8  6ECF               	movwf	207,c	;volatile
  4610  001DBA                     
  4611                           ;mcc_generated_files/tmr1.c: 139:         TMR1L = (uint8_t)timerVal;
  4612  001DBA  C001  FFCE         	movff	TMR1_WriteTimer@timerVal,4046	;volatile
  4613  001DBE                     i2l156:
  4614  001DBE  0012               	return		;funcret
  4615  001DC0                     __end_of_TMR1_WriteTimer:
  4616                           	callstack 0
  4617                           
  4618                           	psect	text41
  4619  000000                     __ptext41:
  4620                           	callstack 0
  4621  000000                     
  4622                           	psect	rparam
  4623  0000                     
  4624                           	psect	temp
  4625  00003F                     btemp:
  4626                           	callstack 0
  4627  00003F                     	ds	1
  4628  0000                     int$flags	set	btemp
  4629  0000                     wtemp8	set	btemp+1
  4630  0000                     ttemp5	set	btemp+1
  4631  0000                     ttemp6	set	btemp+4
  4632  0000                     ttemp7	set	btemp+8
  4633                           
  4634                           	psect	idloc
  4635                           
  4636                           ;Config register IDLOC0 @ 0x200000
  4637                           ;	unspecified, using default values
  4638  200000                     	org	2097152
  4639  200000  FF                 	db	255
  4640                           
  4641                           ;Config register IDLOC1 @ 0x200001
  4642                           ;	unspecified, using default values
  4643  200001                     	org	2097153
  4644  200001  FF                 	db	255
  4645                           
  4646                           ;Config register IDLOC2 @ 0x200002
  4647                           ;	unspecified, using default values
  4648  200002                     	org	2097154
  4649  200002  FF                 	db	255
  4650                           
  4651                           ;Config register IDLOC3 @ 0x200003
  4652                           ;	unspecified, using default values
  4653  200003                     	org	2097155
  4654  200003  FF                 	db	255
  4655                           
  4656                           ;Config register IDLOC4 @ 0x200004
  4657                           ;	unspecified, using default values
  4658  200004                     	org	2097156
  4659  200004  FF                 	db	255
  4660                           
  4661                           ;Config register IDLOC5 @ 0x200005
  4662                           ;	unspecified, using default values
  4663  200005                     	org	2097157
  4664  200005  FF                 	db	255
  4665                           
  4666                           ;Config register IDLOC6 @ 0x200006
  4667                           ;	unspecified, using default values
  4668  200006                     	org	2097158
  4669  200006  FF                 	db	255
  4670                           
  4671                           ;Config register IDLOC7 @ 0x200007
  4672                           ;	unspecified, using default values
  4673  200007                     	org	2097159
  4674  200007  FF                 	db	255
  4675                           
  4676                           	psect	config
  4677                           
  4678                           ; Padding undefined space
  4679  300000                     	org	3145728
  4680  300000  FF                 	db	255
  4681                           
  4682                           ;Config register CONFIG1H @ 0x300001
  4683                           ;	Oscillator Selection bits
  4684                           ;	FOSC = INTIO67, Internal oscillator block
  4685                           ;	4X PLL Enable
  4686                           ;	PLLCFG = OFF, Oscillator used directly
  4687                           ;	Primary clock enable bit
  4688                           ;	PRICLKEN = ON, Primary clock enabled
  4689                           ;	Fail-Safe Clock Monitor Enable bit
  4690                           ;	FCMEN = OFF, Fail-Safe Clock Monitor disabled
  4691                           ;	Internal/External Oscillator Switchover bit
  4692                           ;	IESO = OFF, Oscillator Switchover mode disabled
  4693  300001                     	org	3145729
  4694  300001  28                 	db	40
  4695                           
  4696                           ;Config register CONFIG2L @ 0x300002
  4697                           ;	Power-up Timer Enable bit
  4698                           ;	PWRTEN = OFF, Power up timer disabled
  4699                           ;	Brown-out Reset Enable bits
  4700                           ;	BOREN = SBORDIS, Brown-out Reset enabled in hardware only (SBOREN is disabled)
  4701                           ;	Brown Out Reset Voltage bits
  4702                           ;	BORV = 190, VBOR set to 1.90 V nominal
  4703  300002                     	org	3145730
  4704  300002  1F                 	db	31
  4705                           
  4706                           ;Config register CONFIG2H @ 0x300003
  4707                           ;	Watchdog Timer Enable bits
  4708                           ;	WDTEN = OFF, Watch dog timer is always disabled. SWDTEN has no effect.
  4709                           ;	Watchdog Timer Postscale Select bits
  4710                           ;	WDTPS = 32768, 1:32768
  4711  300003                     	org	3145731
  4712  300003  3C                 	db	60
  4713                           
  4714                           ; Padding undefined space
  4715  300004                     	org	3145732
  4716  300004  FF                 	db	255
  4717                           
  4718                           ;Config register CONFIG3H @ 0x300005
  4719                           ;	CCP2 MUX bit
  4720                           ;	CCP2MX = PORTC1, CCP2 input/output is multiplexed with RC1
  4721                           ;	PORTB A/D Enable bit
  4722                           ;	PBADEN = ON, PORTB<5:0> pins are configured as analog input channels on Reset
  4723                           ;	P3A/CCP3 Mux bit
  4724                           ;	CCP3MX = PORTB5, P3A/CCP3 input/output is multiplexed with RB5
  4725                           ;	HFINTOSC Fast Start-up
  4726                           ;	HFOFST = ON, HFINTOSC output and ready status are not delayed by the oscillator stable
      +                           status
  4727                           ;	Timer3 Clock input mux bit
  4728                           ;	T3CMX = PORTC0, T3CKI is on RC0
  4729                           ;	ECCP2 B output mux bit
  4730                           ;	P2BMX = PORTB5, P2B is on RB5
  4731                           ;	MCLR Pin Enable bit
  4732                           ;	MCLRE = EXTMCLR, MCLR pin enabled, RE3 input pin disabled
  4733  300005                     	org	3145733
  4734  300005  BF                 	db	191
  4735                           
  4736                           ;Config register CONFIG4L @ 0x300006
  4737                           ;	Stack Full/Underflow Reset Enable bit
  4738                           ;	STVREN = ON, Stack full/underflow will cause Reset
  4739                           ;	Single-Supply ICSP Enable bit
  4740                           ;	LVP = ON, Single-Supply ICSP enabled if MCLRE is also 1
  4741                           ;	Extended Instruction Set Enable bit
  4742                           ;	XINST = OFF, Instruction set extension and Indexed Addressing mode disabled (Legacy mo
      +                          de)
  4743                           ;	Background Debug
  4744                           ;	DEBUG = OFF, Disabled
  4745  300006                     	org	3145734
  4746  300006  85                 	db	133
  4747                           
  4748                           ; Padding undefined space
  4749  300007                     	org	3145735
  4750  300007  FF                 	db	255
  4751                           
  4752                           ;Config register CONFIG5L @ 0x300008
  4753                           ;	Code Protection Block 0
  4754                           ;	CP0 = OFF, Block 0 (000800-003FFFh) not code-protected
  4755                           ;	Code Protection Block 1
  4756                           ;	CP1 = OFF, Block 1 (004000-007FFFh) not code-protected
  4757                           ;	Code Protection Block 2
  4758                           ;	CP2 = OFF, Block 2 (008000-00BFFFh) not code-protected
  4759                           ;	Code Protection Block 3
  4760                           ;	CP3 = OFF, Block 3 (00C000-00FFFFh) not code-protected
  4761  300008                     	org	3145736
  4762  300008  0F                 	db	15
  4763                           
  4764                           ;Config register CONFIG5H @ 0x300009
  4765                           ;	Boot Block Code Protection bit
  4766                           ;	CPB = OFF, Boot block (000000-0007FFh) not code-protected
  4767                           ;	Data EEPROM Code Protection bit
  4768                           ;	CPD = OFF, Data EEPROM not code-protected
  4769  300009                     	org	3145737
  4770  300009  C0                 	db	192
  4771                           
  4772                           ;Config register CONFIG6L @ 0x30000A
  4773                           ;	Write Protection Block 0
  4774                           ;	WRT0 = OFF, Block 0 (000800-003FFFh) not write-protected
  4775                           ;	Write Protection Block 1
  4776                           ;	WRT1 = OFF, Block 1 (004000-007FFFh) not write-protected
  4777                           ;	Write Protection Block 2
  4778                           ;	WRT2 = OFF, Block 2 (008000-00BFFFh) not write-protected
  4779                           ;	Write Protection Block 3
  4780                           ;	WRT3 = OFF, Block 3 (00C000-00FFFFh) not write-protected
  4781  30000A                     	org	3145738
  4782  30000A  0F                 	db	15
  4783                           
  4784                           ;Config register CONFIG6H @ 0x30000B
  4785                           ;	Configuration Register Write Protection bit
  4786                           ;	WRTC = OFF, Configuration registers (300000-3000FFh) not write-protected
  4787                           ;	Boot Block Write Protection bit
  4788                           ;	WRTB = OFF, Boot Block (000000-0007FFh) not write-protected
  4789                           ;	Data EEPROM Write Protection bit
  4790                           ;	WRTD = OFF, Data EEPROM not write-protected
  4791  30000B                     	org	3145739
  4792  30000B  E0                 	db	224
  4793                           
  4794                           ;Config register CONFIG7L @ 0x30000C
  4795                           ;	Table Read Protection Block 0
  4796                           ;	EBTR0 = OFF, Block 0 (000800-003FFFh) not protected from table reads executed in other
      +                           blocks
  4797                           ;	Table Read Protection Block 1
  4798                           ;	EBTR1 = OFF, Block 1 (004000-007FFFh) not protected from table reads executed in other
      +                           blocks
  4799                           ;	Table Read Protection Block 2
  4800                           ;	EBTR2 = OFF, Block 2 (008000-00BFFFh) not protected from table reads executed in other
      +                           blocks
  4801                           ;	Table Read Protection Block 3
  4802                           ;	EBTR3 = OFF, Block 3 (00C000-00FFFFh) not protected from table reads executed in other
      +                           blocks
  4803  30000C                     	org	3145740
  4804  30000C  0F                 	db	15
  4805                           
  4806                           ;Config register CONFIG7H @ 0x30000D
  4807                           ;	Boot Block Table Read Protection bit
  4808                           ;	EBTRB = OFF, Boot Block (000000-0007FFh) not protected from table reads executed in ot
      +                          her blocks
  4809  30000D                     	org	3145741
  4810  30000D  40                 	db	64
  4811                           tosu	equ	0xFFF
  4812                           tosh	equ	0xFFE
  4813                           tosl	equ	0xFFD
  4814                           stkptr	equ	0xFFC
  4815                           pclatu	equ	0xFFB
  4816                           pclath	equ	0xFFA
  4817                           pcl	equ	0xFF9
  4818                           tblptru	equ	0xFF8
  4819                           tblptrh	equ	0xFF7
  4820                           tblptrl	equ	0xFF6
  4821                           tablat	equ	0xFF5
  4822                           prodh	equ	0xFF4
  4823                           prodl	equ	0xFF3
  4824                           indf0	equ	0xFEF
  4825                           postinc0	equ	0xFEE
  4826                           postdec0	equ	0xFED
  4827                           preinc0	equ	0xFEC
  4828                           plusw0	equ	0xFEB
  4829                           fsr0h	equ	0xFEA
  4830                           fsr0l	equ	0xFE9
  4831                           wreg	equ	0xFE8
  4832                           indf1	equ	0xFE7
  4833                           postinc1	equ	0xFE6
  4834                           postdec1	equ	0xFE5
  4835                           preinc1	equ	0xFE4
  4836                           plusw1	equ	0xFE3
  4837                           fsr1h	equ	0xFE2
  4838                           fsr1l	equ	0xFE1
  4839                           bsr	equ	0xFE0
  4840                           indf2	equ	0xFDF
  4841                           postinc2	equ	0xFDE
  4842                           postdec2	equ	0xFDD
  4843                           preinc2	equ	0xFDC
  4844                           plusw2	equ	0xFDB
  4845                           fsr2h	equ	0xFDA
  4846                           fsr2l	equ	0xFD9
  4847                           status	equ	0xFD8

Data Sizes:
    Strings     0
    Constant    4
    Data        10
    BSS         391
    Persistent  4
    Stack       0

Auto Spaces:
    Space          Size  Autos    Used
    COMRAM           94     44      62
    BANK0           160     67     150
    BANK1           256      0       0
    BANK2           256      0       0
    BANK3           256      0       0
    BANK4           256      0       0
    BANK5           256      0       0
    BANK6           256      0       0
    BANK7           256      0       0
    BANK8           256      0       0
    BANK9           256      0       0
    BANK10          256      0       0
    BANK11          256      0       0
    BANK12          256      0       0
    BANK13          256      0       0
    BANK14          256      0       0
    BANK15           56      0       0

Pointer List with Targets:

    memcpy@d1	PTR void  size(2) Largest target is 304
		 -> packetsTX(BIGRAM[304]), BoardAddress(COMRAM[3]), config(BANK0[17]), 

    memcpy@d	PTR unsigned char  size(2) Largest target is 304
		 -> packetsTX(BIGRAM[304]), BoardAddress(COMRAM[3]), config(BANK0[17]), 

    memcpy@s1	PTR const void  size(2) Largest target is 32
		 -> bufferTX(BANK0[32]), config.Address(BANK0[3]), BoardAddress(COMRAM[3]), config(BANK0[17]), 
		 -> DEFAULT_PIPE_ADDR(COMRAM[6]), 

    memcpy@s	PTR const unsigned char  size(2) Largest target is 32
		 -> bufferTX(BANK0[32]), config.Address(BANK0[3]), BoardAddress(COMRAM[3]), config(BANK0[17]), 
		 -> DEFAULT_PIPE_ADDR(COMRAM[6]), 

    SuperMemCpy@src	PTR unsigned char  size(2) Largest target is 32
		 -> bufferRX(BANK0[32]), BoardAddress(COMRAM[3]), ProcessActionRequest@tmpHumidity(BANK0[2]), 

    SuperMemCpy@dest	PTR unsigned char  size(2) Largest target is 32
		 -> bufferTX(BANK0[32]), ProcessAckPayload@data(BANK0[32]), config(BANK0[17]), 

    SendData@data	PTR unsigned char  size(2) Largest target is 2
		 -> ProcessActionRequest@tmpHumidity(BANK0[2]), 

    ProcessAckPayload@buffer	PTR unsigned char  size(2) Largest target is 32
		 -> bufferRX(BANK0[32]), 

    VerifyBoardAddress@bufferRX	PTR unsigned char  size(2) Largest target is 32
		 -> bufferRX(BANK0[32]), 

    QueueTXPacket@buffer	PTR unsigned char  size(2) Largest target is 32
		 -> bufferTX(BANK0[32]), 

    sp__memcpy	PTR void  size(2) Largest target is 304
		 -> packetsTX(BIGRAM[304]), BoardAddress(COMRAM[3]), config(BANK0[17]), 

    GetMockTempHumidity@temp	PTR unsigned char  size(2) Largest target is 2
		 -> ProcessActionRequest@tmpHumidity(BANK0[2]), 

    nrf24_read_rf_data@buffer	PTR unsigned char  size(2) Largest target is 32
		 -> bufferRX(BANK0[32]), 

    nrf24_send_rf_data@buffer	PTR unsigned char  size(2) Largest target is 304
		 -> packetsTX(BIGRAM[304]), 

    nrf24_read_buff@buffer	PTR unsigned char  size(2) Largest target is 32
		 -> bufferRX(BANK0[32]), 

    nrf24_write_buff@buffer	PTR unsigned char  size(2) Largest target is 304
		 -> packetsTX(BIGRAM[304]), config(BANK0[17]), DEFAULT_PIPE_ADDR(COMRAM[6]), 

    ProcessActionRequest@data	PTR unsigned char  size(2) Largest target is 32
		 -> ProcessAckPayload@data(BANK0[32]), 

    TMR1_SetInterruptHandler@InterruptHandler	PTR FTN()void  size(2) Largest target is 1
		 -> TimerInterruptHandler(), TMR1_DefaultInterruptHandler(), 

    TMR1_InterruptHandler	PTR FTN()void  size(2) Largest target is 1
		 -> TimerInterruptHandler(), Absolute function(), TMR1_DefaultInterruptHandler(), 


Critical Paths under _main in COMRAM

    _main->_InitRadio
    _TMR1_Initialize->_TMR1_SetInterruptHandler
    _InitRadio->_memcpy
    _nrf24_rf_init->_SPI1_Open
    _nrf24_send_rf_data->_nrf24_write_buff
    _nrf24_read_rf_data->_nrf24_read_buff
    _nrf24_read_buff->_SPI1_ExchangeByte
    _nrf24_flush_tx_rx->_nrf24_write_register
    _nrf24_read_register->_SPI1_ExchangeByte
    _nrf24_read_dynamic_payload_length->_SPI1_ExchangeByte
    _ProcessAckPayload->_SuperMemCpy
    _ProcessActionRequest->_ReloadConfig
    _SendError->_SuperMemCpy
    _SendData->_SuperMemCpy
    _QueueTXPacket->_memcpy
    _ReloadConfig->_memcpy
    _nrf24_write_register->_SPI1_ExchangeByte
    _nrf24_write_buff->_SPI1_ExchangeByte

Critical Paths under _INTERRUPT_InterruptManager in COMRAM

    _SendPing->i2_QueueTXPacket
    i2_QueueTXPacket->i2_memcpy

Critical Paths under _main in BANK0

    _main->_HandlePacketLoop
    _HandlePacketLoop->_ProcessAckPayload
    _ProcessAckPayload->_ProcessActionRequest
    _ProcessActionRequest->_SendData
    _SendError->_QueueTXPacket
    _SendData->_QueueTXPacket

Critical Paths under _INTERRUPT_InterruptManager in BANK0

    None.

Critical Paths under _main in BANK1

    None.

Critical Paths under _INTERRUPT_InterruptManager in BANK1

    None.

Critical Paths under _main in BANK2

    None.

Critical Paths under _INTERRUPT_InterruptManager in BANK2

    None.

Critical Paths under _main in BANK3

    None.

Critical Paths under _INTERRUPT_InterruptManager in BANK3

    None.

Critical Paths under _main in BANK4

    None.

Critical Paths under _INTERRUPT_InterruptManager in BANK4

    None.

Critical Paths under _main in BANK5

    None.

Critical Paths under _INTERRUPT_InterruptManager in BANK5

    None.

Critical Paths under _main in BANK6

    None.

Critical Paths under _INTERRUPT_InterruptManager in BANK6

    None.

Critical Paths under _main in BANK7

    None.

Critical Paths under _INTERRUPT_InterruptManager in BANK7

    None.

Critical Paths under _main in BANK8

    None.

Critical Paths under _INTERRUPT_InterruptManager in BANK8

    None.

Critical Paths under _main in BANK9

    None.

Critical Paths under _INTERRUPT_InterruptManager in BANK9

    None.

Critical Paths under _main in BANK10

    None.

Critical Paths under _INTERRUPT_InterruptManager in BANK10

    None.

Critical Paths under _main in BANK11

    None.

Critical Paths under _INTERRUPT_InterruptManager in BANK11

    None.

Critical Paths under _main in BANK12

    None.

Critical Paths under _INTERRUPT_InterruptManager in BANK12

    None.

Critical Paths under _main in BANK13

    None.

Critical Paths under _INTERRUPT_InterruptManager in BANK13

    None.

Critical Paths under _main in BANK14

    None.

Critical Paths under _INTERRUPT_InterruptManager in BANK14

    None.

Critical Paths under _main in BANK15

    None.

Critical Paths under _INTERRUPT_InterruptManager in BANK15

    None.

Call Graph Tables:

 ---------------------------------------------------------------------------------
 (Depth) Function   	        Calls       Base Space   Used Autos Params    Refs
 ---------------------------------------------------------------------------------
 (0) _main                                                 0     0      0   39611
                   _HandlePacketLoop
                          _InitRadio
                  _SYSTEM_Initialize
           _TMR1_SetInterruptHandler
 ---------------------------------------------------------------------------------
 (1) _SYSTEM_Initialize                                    0     0      0     174
               _INTERRUPT_Initialize
              _OSCILLATOR_Initialize
             _PIN_MANAGER_Initialize
                    _SPI1_Initialize
                    _TMR1_Initialize
 ---------------------------------------------------------------------------------
 (2) _TMR1_Initialize                                      0     0      0     174
           _TMR1_SetInterruptHandler
 ---------------------------------------------------------------------------------
 (1) _TMR1_SetInterruptHandler                             2     0      2     174
                                             32 COMRAM     2     0      2
 ---------------------------------------------------------------------------------
 (2) _SPI1_Initialize                                      0     0      0       0
 ---------------------------------------------------------------------------------
 (2) _PIN_MANAGER_Initialize                               0     0      0       0
 ---------------------------------------------------------------------------------
 (2) _OSCILLATOR_Initialize                                0     0      0       0
 ---------------------------------------------------------------------------------
 (2) _INTERRUPT_Initialize                                 0     0      0       0
 ---------------------------------------------------------------------------------
 (1) _InitRadio                                            1     1      0    3933
                                             43 COMRAM     1     1      0
                             _memcpy
                      _nrf24_rf_init
                   _nrf24_write_buff
               _nrf24_write_register
 ---------------------------------------------------------------------------------
 (2) _nrf24_rf_init                                        0     0      0      88
                          _SPI1_Open
 ---------------------------------------------------------------------------------
 (3) _SPI1_Open                                            2     2      0      88
                                             32 COMRAM     2     2      0
 ---------------------------------------------------------------------------------
 (1) _HandlePacketLoop                                     3     3      0   35330
                                             64 BANK0      3     3      0
                  _ProcessAckPayload
                 _VerifyBoardAddress
                  _nrf24_flush_tx_rx
  _nrf24_read_dynamic_payload_length
                _nrf24_read_register
                 _nrf24_read_rf_data
                 _nrf24_send_rf_data
               _nrf24_write_register
 ---------------------------------------------------------------------------------
 (2) _nrf24_send_rf_data                                   3     0      3    1069
                                             38 COMRAM     3     0      3
                   _nrf24_write_buff
 ---------------------------------------------------------------------------------
 (2) _nrf24_read_rf_data                                   3     0      3    3073
                                             38 COMRAM     3     0      3
                  _nrf24_flush_tx_rx
                    _nrf24_read_buff
               _nrf24_write_register
 ---------------------------------------------------------------------------------
 (3) _nrf24_read_buff                                      5     2      3     287
                                             33 COMRAM     5     2      3
                  _SPI1_ExchangeByte
 ---------------------------------------------------------------------------------
 (3) _nrf24_flush_tx_rx                                    1     1      0    1306
                                             35 COMRAM     1     1      0
                  _SPI1_ExchangeByte
               _nrf24_write_register
 ---------------------------------------------------------------------------------
 (2) _nrf24_read_register                                  2     2      0      67
                                             33 COMRAM     2     2      0
                  _SPI1_ExchangeByte
 ---------------------------------------------------------------------------------
 (2) _nrf24_read_dynamic_payload_length                    1     1      0      45
                                             33 COMRAM     1     1      0
                  _SPI1_ExchangeByte
 ---------------------------------------------------------------------------------
 (2) _VerifyBoardAddress                                   8     6      2     188
                                             32 COMRAM     8     6      2
 ---------------------------------------------------------------------------------
 (2) _ProcessAckPayload                                   39    36      3   27880
                                             25 BANK0     39    36      3
               _ProcessActionRequest
                          _SendError
                        _SuperMemCpy
 ---------------------------------------------------------------------------------
 (3) _ProcessActionRequest                                 7     5      2   17181
                                             18 BANK0      7     5      2
                _GetMockTempHumidity
                       _ReloadConfig
                           _SendData
                          _SendError
 ---------------------------------------------------------------------------------
 (3) _SendError                                            2     2      0    6385
                                             13 BANK0      2     2      0
                      _QueueTXPacket
                        _SuperMemCpy
 ---------------------------------------------------------------------------------
 (4) _SendData                                             5     2      3    6692
                                             13 BANK0      5     2      3
                      _QueueTXPacket
                        _SuperMemCpy
 ---------------------------------------------------------------------------------
 (3) _SuperMemCpy                                         12     5      7    3679
                                             32 COMRAM    12     5      7
 ---------------------------------------------------------------------------------
 (4) _QueueTXPacket                                       13    10      3    2545
                                              0 BANK0     13    10      3
                             _memcpy
 ---------------------------------------------------------------------------------
 (4) _ReloadConfig                                         1     1      0    3749
                                             43 COMRAM     1     1      0
                             _memcpy
                   _nrf24_write_buff
               _nrf24_write_register
 ---------------------------------------------------------------------------------
 (2) _nrf24_write_register                                 2     1      1    1284
                                             33 COMRAM     2     1      1
                  _SPI1_ExchangeByte
 ---------------------------------------------------------------------------------
 (2) _nrf24_write_buff                                     5     2      3     873
                                             33 COMRAM     5     2      3
                  _SPI1_ExchangeByte
 ---------------------------------------------------------------------------------
 (3) _SPI1_ExchangeByte                                    1     1      0      22
                                             32 COMRAM     1     1      0
 ---------------------------------------------------------------------------------
 (2) _memcpy                                              11     5      6    1558
                                             32 COMRAM    11     5      6
 ---------------------------------------------------------------------------------
 (4) _GetMockTempHumidity                                  2     0      2     120
                                             32 COMRAM     2     0      2
 ---------------------------------------------------------------------------------
 Estimated maximum stack depth 4
 ---------------------------------------------------------------------------------
 (Depth) Function   	        Calls       Base Space   Used Autos Params    Refs
 ---------------------------------------------------------------------------------
 (7) _INTERRUPT_InterruptManager                           8     8      0    1491
                                             24 COMRAM     8     8      0
                           _TMR1_ISR
 ---------------------------------------------------------------------------------
 (8) _TMR1_ISR                                             0     0      0    1491
                   Absolute function *
       _TMR1_DefaultInterruptHandler *
                    _TMR1_WriteTimer
              _TimerInterruptHandler *
 ---------------------------------------------------------------------------------
 (9) _TimerInterruptHandler                                0     0      0    1251
                           _SendPing
                            ___llmod
 ---------------------------------------------------------------------------------
 (10) ___llmod                                             9     1      8     311
                                              0 COMRAM     9     1      8
 ---------------------------------------------------------------------------------
 (10) _SendPing                                            0     0      0     940
                    i2_QueueTXPacket
                      i2_SuperMemCpy
 ---------------------------------------------------------------------------------
 (11) i2_SuperMemCpy                                      12     5      7     308
                                              0 COMRAM    12     5      7
 ---------------------------------------------------------------------------------
 (11) i2_QueueTXPacket                                    13    10      3     632
                                             11 COMRAM    13    10      3
                           i2_memcpy
 ---------------------------------------------------------------------------------
 (12) i2_memcpy                                           11     5      6     221
                                              0 COMRAM    11     5      6
 ---------------------------------------------------------------------------------
 (9) _TMR1_WriteTimer                                      2     0      2     240
                                              0 COMRAM     2     0      2
 ---------------------------------------------------------------------------------
 (9) _TMR1_DefaultInterruptHandler                         0     0      0       0
 ---------------------------------------------------------------------------------
 (9) Absolute function(Fake)                               0     0      0       0
 ---------------------------------------------------------------------------------
 Estimated maximum stack depth 12
 ---------------------------------------------------------------------------------

 Call Graph Graphs:

 _main (ROOT)
   _HandlePacketLoop
     _ProcessAckPayload
       _ProcessActionRequest
         _GetMockTempHumidity
         _ReloadConfig
           _memcpy
           _nrf24_write_buff
             _SPI1_ExchangeByte
           _nrf24_write_register
             _SPI1_ExchangeByte
         _SendData
           _QueueTXPacket
             _memcpy
           _SuperMemCpy
         _SendError
           _QueueTXPacket
           _SuperMemCpy
       _SendError
       _SuperMemCpy
     _VerifyBoardAddress
     _nrf24_flush_tx_rx
       _SPI1_ExchangeByte
       _nrf24_write_register
     _nrf24_read_dynamic_payload_length
       _SPI1_ExchangeByte
     _nrf24_read_register
       _SPI1_ExchangeByte
     _nrf24_read_rf_data
       _nrf24_flush_tx_rx
       _nrf24_read_buff
         _SPI1_ExchangeByte
       _nrf24_write_register
     _nrf24_send_rf_data
       _nrf24_write_buff
     _nrf24_write_register
   _InitRadio
     _memcpy
     _nrf24_rf_init
       _SPI1_Open
     _nrf24_write_buff
     _nrf24_write_register
   _SYSTEM_Initialize
     _INTERRUPT_Initialize
     _OSCILLATOR_Initialize
     _PIN_MANAGER_Initialize
     _SPI1_Initialize
     _TMR1_Initialize
       _TMR1_SetInterruptHandler
   _TMR1_SetInterruptHandler

 _INTERRUPT_InterruptManager (ROOT)
   _TMR1_ISR
     Absolute function(Fake) *
     _TMR1_DefaultInterruptHandler *
     _TMR1_WriteTimer *
     _TimerInterruptHandler *
       _SendPing
         i2_QueueTXPacket
           i2_memcpy
         i2_SuperMemCpy
       ___llmod

 Address spaces:
Name               Size   Autos  Total    Cost      Usage
BIGRAM             F37      0     130      47        7.8%
EEDATA             400      0       0       0        0.0%
BITBANK14          100      0       0      33        0.0%
BANK14             100      0       0      34        0.0%
BITBANK13          100      0       0      30        0.0%
BANK13             100      0       0      31        0.0%
BITBANK12          100      0       0      28        0.0%
BANK12             100      0       0      29        0.0%
BITBANK11          100      0       0      26        0.0%
BANK11             100      0       0      27        0.0%
BITBANK10          100      0       0      24        0.0%
BANK10             100      0       0      25        0.0%
BITBANK9           100      0       0      22        0.0%
BANK9              100      0       0      23        0.0%
BITBANK8           100      0       0      20        0.0%
BANK8              100      0       0      21        0.0%
BITBANK7           100      0       0      18        0.0%
BANK7              100      0       0      19        0.0%
BITBANK6           100      0       0      16        0.0%
BANK6              100      0       0      17        0.0%
BITBANK5           100      0       0      14        0.0%
BANK5              100      0       0      15        0.0%
BITBANK4           100      0       0      12        0.0%
BANK4              100      0       0      13        0.0%
BITBANK3           100      0       0      10        0.0%
BANK3              100      0       0      11        0.0%
BITBANK2           100      0       0       8        0.0%
BANK2              100      0       0       9        0.0%
BITBANK1           100      0       0       6        0.0%
BANK1              100      0       0       7        0.0%
BITBANK0            A0      0       0       4        0.0%
BANK0               A0     43      96       5       93.8%
BITCOMRAM           5E      0       0       0        0.0%
COMRAM              5E     2C      3E       1       66.0%
BITBANK15           38      0       0      35        0.0%
BANK15              38      0       0      36        0.0%
BITBIGSFRlhh        27      0       0      45        0.0%
BITBIGSFRhhllh      26      0       0      41        0.0%
BITBIGSFRlhl        26      0       0      46        0.0%
BITBIGSFRhhlhh      1D      0       0      38        0.0%
BITBIGSFRhhh         D      0       0      37        0.0%
BITBIGSFRhhllll      6      0       0      43        0.0%
BITBIGSFRhl          6      0       0      44        0.0%
BITBIGSFRhhlhll      2      0       0      40        0.0%
BITBIGSFRhhlhlh      1      0       0      39        0.0%
BITBIGSFRhhlllh      1      0       0      42        0.0%
BIGSFR               0      0       0     200        0.0%
BITSFR_1             0      0       0     200        0.0%
SFR_1                0      0       0     200        0.0%
BITSFR               0      0       0     200        0.0%
SFR                  0      0       0     200        0.0%
STACK                0      0       0       2        0.0%
NULL                 0      0       0       0        0.0%
ABS                  0      0      D4      32        0.0%
DATA                 0      0     204       3        0.0%
CODE                 0      0       0       0        0.0%


Microchip Technology PIC18 Macro Assembler V2.36 build 20220127204148 
Symbol Table                                                                                   Tue Jul 19 21:54:56 2022

                        _SPI1_ExchangeByte 1E7E                                         l27 1D6C  
                                       l51 1EBE                                         l61 1E84  
                                       l63 1E92                                         l55 1698  
                                       l64 1E96                         ?_SPI1_ExchangeByte 0001  
                                      l110 1EAC                                        l113 1EDC  
                                      l301 1BFE                                        l142 1D96  
                                      l250 16F8                                        l242 16AC  
                                      l420 14C6                                        l252 1742  
                                      l308 1C44                                        l412 13A0  
                                      l172 1EF0                                        l245 16C6  
                                      l333 1E06                                        l326 1E26  
                                      l319 1ECE                                        l336 1BAE  
                                      l432 10A6                                        l417 140E  
                                      l281 1E7C                                        l274 18DA  
                                      l450 1A16                                        l291 1C92  
                                      l267 185E                                        l435 10AE  
                                      l427 1142                                        l284 1E28  
                                      l348 1BFA                                        l188 1EF4  
                                      l357 1E62                                        l277 1E66  
                                      l429 10AC                                        l462 19AE  
                                      l296 1CCC                                        l288 1E44  
                                      l465 1944                                        l298 1CCE  
                                      l459 1274                                        l468 17D2  
                                      l477 1ABA                                        u500 1870  
                                      u501 186C                                        u510 189C  
                                      u511 1898                                        u520 18AE  
                                      u521 18AA                                        u530 18C0  
                                      u531 18BC                                        u540 18D0  
                                      u541 18CC                    ProcessAckPayload@buffer 00CC  
                                      u550 1CCC                                        u551 1CC8  
                                      u480 1E92                                        u481 1E8E  
                                      u740 19EE                                        u741 19EA  
                                      u750 1A14                                        u670 15FA  
                                      u751 1A10                                        u671 15F6  
                                      u930 1B5C                                        u690 1C36  
                                      u931 1B58                                        u691 1C32  
                                      u940 13EA                                        u941 13E6  
                                      u950 142E                                        u951 142A  
                                      u960 1444                                        u961 1440  
                                      u970 1456                                        u971 1452  
                                      u980 1ABA                                        u981 1AB6  
                                      u990 16C6                                        u991 16C2  
                          _timer1ReloadVal 0039                        ??_SPI1_ExchangeByte 0021  
                                      prod 000FF3                                        tosl 000FFD  
                                      wreg 000FE8                         _nrf24_read_rf_data 1DE6  
                           ?_nrf24_rf_init 0001                        VerifyBoardAddress@i 0027  
                                     l2101 1BEA                                       l2103 1BF8  
                                     l2031 15EC                                       l2041 1696  
                                     l2033 15FA                                       l2211 19F8  
                                     l2203 19B8                                       l2035 163A  
                                     l2131 1D82                                       l1157 1B5C  
                                     l2213 1A14                                       l2205 19EE  
                                     l2037 163E                                       l2045 1EE8  
                                     l2133 1D84                                       l2071 1C0E  
                                     l2039 1662                                       l2135 1D86  
                                     l2127 1D6E                                       l2209 19F4  
                                     l2153 1E68                                       l2081 1C42  
                                     l2073 1C1E                                       l2137 1D92  
                                     l2129 1D7A                                       l2163 1E2A  
                                     l2155 1E70                                       l2091 1BCC  
                                     l2083 1BB0                                       l2075 1C22  
                                     l2067 1C00                                       l1451 1EAE  
                                     l2251 1E98                                       l2501 1482  
                                     l2165 1E38                                       l2157 1E78  
                                     l2093 1BD2                                       l2085 1BBA  
                                     l2077 1C24                                       l2069 1C06  
                                     l2181 1ECC                                       l2173 1EC0  
                                     l1445 1D42                                       l1453 1EBA  
                                     l2253 1E9C                                       l2503 14A4  
                                     l2511 1AA8                                       l2167 1E40  
                                     l2159 1E7A                                       l2095 1BE0  
                                     l2087 1BC8                                       l2079 1C36  
                                     l2191 1DE6                                       l2183 1E08  
                                     l2175 1EC6                                       l1447 1D52  
                                     l1455 1EBC                                       l2255 1EA0  
                                     l2521 197A                                       l2513 1946  
                                     l2505 1A6A                                       l2601 1242  
                                     l2169 1E42                                       l2097 1BE2  
                                     l2089 1BCA                                       l2193 1DF8  
                                     l2185 1E1A                                       l2177 1EC8  
                                     l1457 1EF2                                       l1449 1D6A  
                                     l2257 1EA4                                       l2523 1984  
                                     l2515 194C                                       l2507 1A72  
                                     l2531 174E                                       l2099 1BE4  
                                     l2195 1E02                                       l2187 1E1C  
                                     l2179 1ECA                                       l2611 128C  
                                     l1459 1ED0                                       l2259 1EA8  
                                     l2525 198E                                       l2517 1956  
                                     l2509 1AA6                                       l2541 179C  
                                     l2533 1752                                       l2197 19B0  
                                     l2189 1E24                                       l2701 1100  
                                     l2621 12C6                                       l2613 129E  
                                     l2471 1B3E                                       l2463 1B0E  
                                     l2527 19AA                                       l2519 1968  
                                     l2543 17BC                                       l2535 1772  
                                     l2551 18EA                                       l2703 1110  
                                     l2631 12F8                                       l2623 12D0  
                                     l2615 12A8                                       l2607 1276  
                                     l2711 1DC4                                       l2465 1B22  
                                     l2473 1B42                                       l2545 17C2  
                                     l2537 1778                                       l2529 1748  
                                     l2553 190A                                       l2561 169E  
                                     l2641 1324                                       l2633 12FA  
                                     l2625 12DA                                       l2617 12B2  
                                     l2609 127A                                       l2713 1DC6  
                                     l2467 1B2E                                       l2491 1432  
                                     l2483 13BC                                       l2475 13A2  
                                     l2539 178A                                       l2555 1910  
                                     l2547 18E0                                       l2571 16FE  
                                     l2563 16AE                                       l2707 1130  
                                     l2643 1340                                       l2635 1300  
                                     l2627 12E4                                       l2619 12BC  
                                     l2715 1DD4                                       l2469 1B32  
                                     l1861 188A                                       l1853 1860  
                                     l2493 1434                                       l2485 13EA  
                                     l2477 13A8                                       l2557 1922  
                                     l2549 18E6                                       l2565 16CC  
                                     l2573 1708                                       l2581 1144  
                                     l2653 1366                                       l2645 135C  
                                     l2637 1304                                       l2629 12EE  
                                     l2717 1DD8                                       l2709 1DC0  
                                     l1839 1E80                                       l1863 189C  
                                     l1871 18D6                                       l1855 1870  
                                     l2495 1444                                       l2487 140A  
                                     l2559 1934                                       l2567 16D4  
                                     l2591 11AC                                       l2583 1156  
                                     l2671 1032                                       l2655 138E  
                                     l2647 1362                                       l2639 1308  
                                     l2719 1DDC                                       l1881 1CB2  
                                     l1873 18D8                                       l1865 18AE  
                                     l1857 187A                                       l2497 1456  
                                     l2569 16E0                                       l2593 11CC  
                                     l2585 1166                                       l2681 1080  
                                     l2673 1042                                       l2665 100C  
                                     l2657 1390                                       l1955 1E46  
                                     l1883 1CB6                                       l1875 1C94  
                                     l1867 18C0                                       l1859 1884  
                                     l2499 145A                                       l2771 1256  
                                     l2595 1202                                       l2587 1188  
                                     l2691 10CE                                       l2683 108A  
                                     l2659 1006                                       l1957 1E52  
                                     l1885 1CB8                                       l1877 1C9C  
                                     l1869 18D0                                       l2773 171C  
                                     l2597 1222                                       l2589 119C  
                                     l2685 1098                                       l2677 1058  
                                     l2669 1030                                       l1879 1CA4  
                                     l1887 1CBA                                       l2599 1238  
                                     l2695 10D6                                       l2687 10B4  
                                     l2679 1080                                       l2697 10EA  
                                     l2689 10BE                                       l2699 10F8  
                     SuperMemCpy@destStart 0023                                       u1000 13A0  
                                     u1001 139C                                       u1010 102C  
                                     u1011 1028                                       u1020 1042  
                                     u1021 103E                                       u1030 1054  
                                     u1031 1050                                       u1040 1098  
                                     u1041 1094                                       u1050 10A6  
                                     u1107 1BC0                                       u1051 10A2  
                                     u1060 10CE                                       u1117 1BD8  
                                     u1061 10CA                                       u1070 10F8  
                                     u1127 1BF0                                       u1071 10F4  
                                     u1080 112C                                       u1137 1E3A  
                                     u1081 1128                                       _LATA 000F89  
                                     _LATB 000F8A                                       _LATC 000F8B  
                                     u1097 1E1E                                       _TMR1 000FCE  
                      ?_nrf24_read_rf_data 0027                                       _WPUB 000F61  
                               InitRadio@i 002C           nrf24_read_register@mnemonic_addr 0022  
                                     _main 1DC0                        SuperMemCpy@srcStart 0026  
                                     fsr1h 000FE2                                       fsr2h 000FDA  
                                     indf1 000FE7                                       indf2 000FDF  
                                     fsr1l 000FE1                                       fsr2l 000FD9  
                                     btemp 003F                   ProcessAckPayload@pktType 00F2  
                                     prodh 000FF4                                       prodl 000FF3  
                                     start 007C               __end_of_nrf24_write_register 18DC  
                __end_of_SPI1_ExchangeByte 1E98                 ??_TMR1_SetInterruptHandler 0023  
                             ___param_bank 000000                        _nrf24_read_register 1E64  
                     ??_nrf24_read_rf_data 002A              __end_of_OSCILLATOR_Initialize 1EDE  
                                    ?_main 0001                   ProcessActionRequest@data 00C5  
         SPI1_Open@spi1UniqueConfiguration 0022              nrf24_write_buff@mnemonic_addr 0025  
                                    _T1CON 000FCD                            __end_of___llmod 185C  
                                    i2l156 1DBE                                      i2l420 15E8  
                                    i2l175 1EF6                                      i2l417 1532  
                                    i2l169 1D08                                      i2l444 1C8E  
                                    i2l197 0058                                      i2l471 1D40  
                                    i2l900 184A                                      i2l477 1B0C  
                                    i2l907 185A                                      _TMR1H 000FCF  
                                    _TMR1L 000FCE                                      _TRISA 000F92  
                                    _TRISB 000F93                                      _TRISC 000F94  
                               i2memcpy@d1 0001                                 i2memcpy@s1 0003  
                                    _Ticks 003B                           __end_of_TMR1_ISR 1D0A  
                     ?_nrf24_read_register 0001                    __end_of_TMR1_Initialize 1D98  
                                    pclath 000FFA                                      pclatu 000FFB  
                                    tablat 000FF5                   nrf24_read_rf_data@buffer 0027  
                            i2_SuperMemCpy 1ABC                                      ttemp5 0040  
                                    ttemp6 0043                                      ttemp7 0047  
                                    status 000FD8                                      wtemp8 0040  
                 __end_of_nrf24_write_buff 1CD0                           __end_ofi2_memcpy 1BAE  
                          _TMR1_WriteTimer 1D98                                 SendError@i 00C1  
                         ?_nrf24_read_buff 0022                            __initialization 1A18  
                             __end_of_main 1DE6                    ??_TimerInterruptHandler 0019  
                      QueueTXPacket@buffer 00B3                 __end_of_VerifyBoardAddress 1A18  
              ?_INTERRUPT_InterruptManager 0001                     QueueTXPacket@oldestPkt 00BE  
                         __end_of_SendData 17D4                                     ??_main 002D  
                         __end_of_SendPing 1D42                              __activetblptr 000003  
                          ??_nrf24_rf_init 0023                      ??_nrf24_read_register 0022  
                         ___llmod@dividend 0001                         _nrf24_send_rf_data 1E08  
                                   _ANSELA 000F38                                     _ANSELB 000F39  
                        i2SuperMemCpy@dest 0001                                     _ANSELC 000F3A  
                                   _T1GCON 000FCC                    TMR1_WriteTimer@timerVal 0001  
                                   i2l2001 14E0                                     i2l2011 1558  
                                   i2l2003 150E                                     i2l2021 15C8  
                                   i2l2013 1568                                     i2l2005 152E  
                                   i2l2015 157A                                     i2l2023 1ABC  
                                   i2l2111 17D4                                     i2l2017 157E  
                                   i2l2009 1556                                     i2l2025 1AC4  
                                   i2l2105 1D0A                                     i2l2121 182A  
                                   i2l2113 17EA                                     i2l2019 15A6  
                                   i2l2027 1AF8                                     i2l2107 1D10  
                                   i2l2123 183A                                     i2l2115 17F2  
                                   i2l2141 1DA6                                     i2l1157 1BAC  
                                   i2l2029 1AFA                                     i2l2109 1D30  
                                   i2l2125 1844                                     i2l2117 17FE  
                                   i2l2151 1DBA                                     i2l2143 1DA8  
                                   i2l2119 180C                                     i2l2145 1DAC  
                                   i2l2147 1DB0                                     i2l2139 1D98  
                                   i2l2243 1C46                                     i2l2149 1DB6  
                                   i2l2245 1C52                                     i2l2261 1CD0  
                                   i2l2263 1CD2                                     i2l2249 1C8A  
                                   i2l2265 1CDE                                     i2l2267 1CF0  
                                   i2l2391 0038                                     i2l2393 0046  
                                   i2l1931 1B7E                                     i2l2395 0054  
                                   i2l1933 1B82                                     i2l2389 002A  
                                   i2l1935 1B8E                                     i2l1927 1B5E  
                                   i2l1929 1B72                                     i2l1937 1B92  
                                   i2l1993 14C8                                     i2l1995 14CC  
                           ?i2_SuperMemCpy 0001                                     _OSCCON 000FD3  
                        i2QueueTXPacket@sz 000E                               SuperMemCpy@i 002C  
                      ?_nrf24_send_rf_data 0027                          __end_of_SPI1_Open 169A  
     __end_of_TMR1_DefaultInterruptHandler 1EF8               _TMR1_DefaultInterruptHandler 1EF6  
                              i2memcpy@tmp 000B                                  ??___llmod 0009  
                                   _config 00A2                                     _memcpy 1B0E  
                                   clear_0 1A40                                     clear_1 1A52  
                                   isa$std 000001                            i2_QueueTXPacket 14C8  
                     ??_nrf24_send_rf_data 002A                               __pdataCOMRAM 002D  
                             __mediumconst 0000                       _nrf24_write_register 185C  
                                   tblptrh 000FF7                                     tblptrl 000FF6  
                                   tblptru 000FF8                              ?_ReloadConfig 0001  
                             _BoardAddress 0034   TMR1_SetInterruptHandler@InterruptHandler 0021  
                  __end_of_TMR1_WriteTimer 1DC0                           ?_TMR1_Initialize 0001  
                        _SYSTEM_Initialize 1E98                          ?_HandlePacketLoop 0001  
                               __accesstop 0060                    __end_of__initialization 1A60  
                       ?_SYSTEM_Initialize 0001                         ??_HandlePacketLoop 002D  
                            ___rparam_used 000001                             __pcstackCOMRAM 0001  
                      ??_SYSTEM_Initialize 0023                                  ?_TMR1_ISR 0001  
          fp__TMR1_DefaultInterruptHandler 0000              ?_TMR1_DefaultInterruptHandler 0001  
                        ??_SPI1_Initialize 0021                      SPI1_ExchangeByte@data 0021  
                        __end_of_InitRadio 13A2                         _spi1_configuration 1001  
                    ?_nrf24_write_register 0022                                  ?i2_memcpy 0001  
                        HandlePacketLoop@i 00F5                    QueueTXPacket@oldestTime 00BA  
                           ??_ReloadConfig 002C                          __end_of_SendError 1946  
                      _GetMockTempHumidity 1E46                  __end_of_SYSTEM_Initialize 1EAE  
                          ??i2_SuperMemCpy 0008                 VerifyBoardAddress@bufferRX 0021  
                            ??_SuperMemCpy 0028                                 __pbssBANK0 0060  
                               __pnvCOMRAM 0037                                  ?_SendData 00C0  
                                ?_SendPing 0001                      __end_of_QueueTXPacket 14C8  
                         SendData@actionID 00C3                       ?_GetMockTempHumidity 0021  
                  __end_ofi2_QueueTXPacket 15EA                                 ??_TMR1_ISR 0019  
                                  ?_memcpy 0021  __end_of_nrf24_read_dynamic_payload_length 1E46  
      ??_nrf24_read_dynamic_payload_length 0022         ?_nrf24_read_dynamic_payload_length 0001  
        _nrf24_read_dynamic_payload_length 1E28                                 ??i2_memcpy 0007  
                                  _OSCCON2 000FD2                                    i2u61_40 1BAC  
                                  i2u61_41 1BA8                                    i2u62_40 150E  
                                  i2u70_40 17EA                                    i2u62_41 150A  
                                  i2u70_41 17E6                                    _OSCTUNE 000F9B  
                                  i2u63_40 1552                                    i2u71_40 180C  
                                  i2u63_41 154E                                    i2u71_41 1808  
                                  i2u64_40 1568                                    i2u72_40 182A  
                                  i2u64_41 1564                                    i2u72_41 1826  
                                  i2u73_40 1DA6                                    i2u65_40 157A  
                                  i2u73_41 1DA2                                    i2u65_41 1576  
                                  i2u66_40 1B0C                                    i2u90_40 0038  
                                  i2u66_41 1B08                                    i2u90_41 0034  
                                  i2u91_40 0046                                    i2u91_41 0042  
                                  i2u76_40 1C86                                    i2u92_40 0054  
                                  i2u76_41 1C82                                    i2u92_41 0050  
                                  i2u77_40 1CF0                                    i2u77_41 1CEC  
                                  i2u78_48 1CF6                                    i2u78_49 1D08  
                                  _SSP1ADD 000FC8                                    _SSP1BUF 000FC9  
                          ReloadConfig@ard 002C                              SuperMemCpy@sz 0027  
                         ?_TMR1_WriteTimer 0001                    GetMockTempHumidity@temp 0021  
                               ??_SendData 002D                          ?_nrf24_write_buff 0022  
                               ??_SendPing 0019                        __end_of_SuperMemCpy 1ABC  
                                  __Hparam 0000                             i2SuperMemCpy@i 000C  
                                  __Lparam 0000                         ??_nrf24_write_buff 0025  
                    ??_GetMockTempHumidity 0023                                    ___llmod 17D4  
                             __psmallconst 1000              __end_of_TimerInterruptHandler 1C90  
                                  __pcinit 1A18                                    __ramtop 1000  
                                  __ptext0 1DC0                                    __ptext1 1E98  
                                  __ptext2 1D6E                                    __ptext3 1EE8  
                                  __ptext4 1EAE                                    __ptext5 1D42  
                                  __ptext6 1ED0                                    __ptext7 1EF2  
                                  __ptext8 1276                                    __ptext9 1EC0  
           ??_TMR1_DefaultInterruptHandler 0001                     ??_nrf24_write_register 0023  
                                _T1CONbits 000FCD                      _OSCILLATOR_Initialize 1ED0  
                 ??_PIN_MANAGER_Initialize 0021                  ?_TMR1_SetInterruptHandler 0021  
                       _VerifyBoardAddress 19B0                       end_of_initialization 1A60  
                                  memcpy@d 0028                                    memcpy@n 0025  
                                  memcpy@s 002A                        ?_VerifyBoardAddress 0021  
                             SendData@data 00C0                       __end_of_ReloadConfig 19B0  
                                  postdec1 000FE5                                    postinc0 000FEE  
                                  postinc1 000FE6                                    postinc2 000FDE  
                         ?i2_QueueTXPacket 000C                                  _SPI1_Open 15EA  
          ProcessActionRequest@tmpHumidity 00CA                __end_of_nrf24_read_register 1E7E  
                     ??_VerifyBoardAddress 0023     nrf24_read_dynamic_payload_length@byte0 0022  
                        _nrf24_flush_tx_rx 1BAE                      nrf24_read_buff@buffer 0022  
                                _TRISCbits 000F94                      __end_of_nrf24_rf_init 1ED0  
                          SuperMemCpy@dest 0021                         ?_nrf24_flush_tx_rx 0001  
                          QueueTXPacket@sz 00B5                                _SuperMemCpy 1A6A  
                      ??_nrf24_flush_tx_rx 0024                            _SPI1_Initialize 1EAE  
                 nrf24_send_rf_data@buffer 0027                   i2QueueTXPacket@oldestPkt 0017  
             __end_of_INTERRUPT_Initialize 1EF6                                 ?_SPI1_Open 0001  
                            __pidataCOMRAM 1EDE                                  i2memcpy@d 0007  
                                i2memcpy@n 0005                                  i2memcpy@s 0009  
                           __end_of_memcpy 1B5E                     ?_OSCILLATOR_Initialize 0001  
                __end_of_nrf24_flush_tx_rx 1BFC                                  SendData@i 00C4  
                 fp__TimerInterruptHandler 0000                        start_initialization 1A18  
                                _InitRadio 1276                     HandlePacketLoop@status 00F4  
                                _SendError 18DC                            ___llmod@divisor 0005  
                         i2SuperMemCpy@src 0004                            ___llmod@counter 0009  
                         i2QueueTXPacket@i 0018                   nrf24_read_register@byte0 0023  
                       HandlePacketLoop@sz 00F3               __end_of_ProcessActionRequest 1744  
                                 ??_memcpy 0027          nrf24_write_register@mnemonic_addr 0023  
                              __pbssBIGRAM 00F6                                __pbssCOMRAM 003B  
                            __pcstackBANK0 00B3                                 ?_InitRadio 0001  
                        ??_nrf24_read_buff 0025                    __end_of_SPI1_Initialize 1EC0  
                   i2SuperMemCpy@destStart 0003                      __end_ofi2_SuperMemCpy 1B0E  
             nrf24_read_buff@mnemonic_addr 0025                                 ?_SendError 0001  
                   _PIN_MANAGER_Initialize 1D42                  i2QueueTXPacket@oldestTime 0013  
                ProcessAckPayload@actionID 00F1                                  __pintcode 0008  
         __end_of_TMR1_SetInterruptHandler 1EF2                           nrf24_read_buff@i 0026  
                             _PingInterval 002D                  nrf24_write_register@value 0022  
                                 ?___llmod 0001                                ??_SPI1_Open 0021  
             ??_INTERRUPT_InterruptManager 0019                        ProcessAckPayload@sz 00CE  
                              __smallconst 1000                                  _packetsTX 00F6  
                             _ReloadConfig 1946                       _INTERRUPT_Initialize 1EF2  
                                 _LATAbits 000F89                                   _LATCbits 000F8B  
              __end_of_GetMockTempHumidity 1E64                                   _PIE1bits 000F9D  
                                 _PIR1bits 000F9E                                   _RCONbits 000FD0  
               __end_of_nrf24_read_rf_data 1E08                                   _SSP1CON1 000FC6  
                                 _SSP1CON2 000FC5                                   _TMR1_ISR 1CD0  
                                 _SSP1STAT 000FC7                  ProcessActionRequest@F6202 0060  
                         _HandlePacketLoop 1006                       nrf24_read_buff@bytes 0024  
                        ??_TMR1_Initialize 0023                             SuperMemCpy@src 0024  
                           QueueTXPacket@i 00BF                      _TimerInterruptHandler 1C46  
                    ProcessAckPayload@data 00D1                                   i2_memcpy 1B5E  
                              ??_InitRadio 002C                           ?_SPI1_Initialize 0001  
                              _INTCON2bits 000FF1                                  copy_data0 1A2C  
                    ?_INTERRUPT_Initialize 0001                               ?_SuperMemCpy 0021  
                     _ProcessActionRequest 169A                                ??_SendError 002D  
                                 _SendData 1744                                   _SendPing 1D0A  
                          i2SuperMemCpy@sz 0007                                   __Hrparam 0000  
                                memcpy@tmp 0027                                   __Lrparam 0000  
                        _ProcessAckPayload 1144                              _QueueTXPacket 13A2  
                       ?_ProcessAckPayload 00CC                    ??_OSCILLATOR_Initialize 0021  
                 _TMR1_SetInterruptHandler 1EE8                       nrf24_read_rf_data@sz 0029  
                    _TMR1_InterruptHandler 0037                        ??_ProcessAckPayload 00CF  
                       SendError@errorCode 00C0                             SendData@dataSz 00C2  
                                 __ptext10 15EA                                   __ptext11 1006  
                                 __ptext20 169A                                   __ptext12 1E08  
                                 __ptext21 18DC                                   __ptext13 1DE6  
                               _T1GCONbits 000FCC                                   __ptext30 1E46  
                                 __ptext22 1744                                   __ptext14 1BFC  
                                 __ptext23 1A6A                                   __ptext15 1BAE  
                                 __ptext40 1D98                                   __ptext32 1CD0  
                                 __ptext24 13A2                                   __ptext16 1E64  
                                 __ptext41 0000                                   __ptext33 1EF6  
                                 __ptext25 1946                                   __ptext17 1E28  
                                 __ptext34 1C46                                   __ptext26 185C  
                                 __ptext18 19B0                                   __ptext35 17D4  
                                 __ptext27 1C90                                   __ptext19 1144  
                                 __ptext36 1D0A                                   __ptext28 1E7E  
                                 __ptext37 1ABC                                   __ptext29 1B0E  
                                 __ptext38 14C8                                   __ptext39 1B5E  
                             _SSP1CON1bits 000FC6                                   _bufferRX 0062  
                                 _bufferTX 0082                      ?_ProcessActionRequest 00C5  
                    i2SuperMemCpy@srcStart 0006                          _DEFAULT_PIPE_ADDR 002E  
                __end_of_ProcessAckPayload 1276                             ?_QueueTXPacket 00B3  
                                 isa$xinst 000000                          nrf24_write_buff@i 0026  
                                 int$flags 003F               ProcessActionRequest@actionID 00C9  
                          _nrf24_read_buff 1BFC         __end_of_INTERRUPT_InterruptManager 007C  
               _INTERRUPT_InterruptManager 0008                          ??_TMR1_WriteTimer 0003  
               __end_of_nrf24_send_rf_data 1E28                     ?_TimerInterruptHandler 0001  
                         _nrf24_write_buff 1C90                                 _INTCONbits 000FF2  
                                 memcpy@d1 0021                                   memcpy@s1 0023  
                   ??_INTERRUPT_Initialize 0021                                   intlevel2 0000  
                  ?_PIN_MANAGER_Initialize 0001                     nrf24_write_buff@buffer 0022  
                    i2QueueTXPacket@buffer 000C                      nrf24_write_buff@bytes 0024  
                            _nrf24_rf_init 1EC0                       nrf24_send_rf_data@sz 0029  
                   ??_ProcessActionRequest 00C7                          ??i2_QueueTXPacket 000F  
                 __end_of_HandlePacketLoop 1144             __end_of_PIN_MANAGER_Initialize 1D6E  
                          ??_QueueTXPacket 00B6                    __end_of_nrf24_read_buff 1C46  
                          _TMR1_Initialize 1D6E                 __end_of_spi1_configuration 1005  
